(lp1
(lp2
(lp3
I0
aI0
aI0
aI0
aI0
aI1
aI1
aI0
aI1
aI0
aI0
aI1
aI0
aI0
aI0
aI0
aI0
aI0
aI0
aI0
aI0
aI0
aI0
aI1
aI0
aI0
aI1
aI0
aI0
aI0
aI0
aI0
aI0
aI0
aI0
aI0
aI0
aI1
aI0
aa(lp4
F1
aF1
aF1
aF1
aF1
aF0.99999999999999956
aF0.99999999999999778
aF1
aF1
aF1
aF1
aF1
aF1
aF0.99999999999999956
aF1
aF4.5397868702434422e-05
aF4.5397868702434422e-05
aF0.99999998098932641
aF1
aF1
aF1
aF4.5397868702434422e-05
aF0.99999999999999956
aF1
aF1
aF4.5397868702434422e-05
aF1
aF0.99998266871684605
aF4.5397868702434422e-05
aF1
aF0.9999999999999476
aF1
aF4.5397868702434422e-05
aF1
aa(lp5
F0.99999999998668088
aF1
aF4.5397868702434422e-05
aF4.5397868702434422e-05
aF0.99999999999999889
aF1
aF1
aF4.5397868702434422e-05
aF4.5397868702434422e-05
aF4.5397868702434422e-05
aF4.5397868702434422e-05
aF0.99999820769592129
aF4.5397868702434422e-05
aF0.99999999446348609
aF0.99999999999915956
aF1
aF1
aF4.5397868702434422e-05
aF1
aF0.9999999999998701
aF4.5397868702434422e-05
aF4.5397868702434422e-05
aF1
aF0.99999995192139857
aF1
aF0.99999999936553929
aF0.99999999999146238
aF1
aF4.5397868702434422e-05
aa(lp6
F0.00014193457729322145
aF0.99998470220639157
aF0.99932057508172889
aF0.00021435098177052686
aF0.99998009002670796
aF0.99996850854415176
aF0.99997373930026667
aF0.99994754794803353
aF0.0021421950070892675
aF0.9999761494368764
aF0.99996560307811744
aF0.9998793227253826
aF0.9999792205186232
aF0.99996785282868916
aF0.99997014854716526
aF0.99996271398626246
aF0.9999625349943887
aF0.99996144371685525
aF0.99994527937788857
aF0.99984896366507958
aF0.99997264530543994
aF0.99996893740610082
aF0.99997924327824594
aF0.99998271088200952
aa(lp7
F0.00084629239784507362
aF0.00067160660255148282
aF0.0045624057735073296
aF0.99994014364518757
aF0.99979059981310459
aF0.00049041466037209099
aF0.99995133440805273
aF0.0052724844250303608
aF0.99991698734549794
aF0.00011112958913696744
aF0.99988749413041866
aF6.6834757833018958e-05
aF0.99994306414938583
aF0.99952088053982246
aF0.00027294946336364349
aF0.0001961379289385338
aF0.99988107226859213
aF0.99995746668320695
aF0.0010872761467114382
aa(lp8
F0.026057683041015883
aF0.99835609412034299
aF0.99908725057643544
aF5.1939542977214913e-05
aF0.99688881890066727
aF0.99921515483274248
aF8.36518259545288e-05
aF0.0058601067672002169
aF0.012074130109353038
aF0.043018176746782918
aF0.02115149200467949
aF0.99939032604499567
aF0.99968774680303185
aF0.0022698623656586124
aa(lp9
F6.3118690040059978e-05
aF0.021666588545104951
aF0.03274636945386733
aF0.018290885923509328
aF0.010964668056129057
aF0.022586234414442678
aF0.0001098044638016073
aF0.022792549496789802
aF0.033058449678324775
aa(lp10
F0.54593624003858343
aF0.037699251569195534
aF0.1007931461824691
aF0.15303220431296644
aF0.003761969372496296
aaa(lp11
(lp12
(lp13
F1.7048296239063485
aF-189.20757788399763
aF-216.12550579325031
aF-224.59968728381693
aF2.9483245431518825
aF-149.43711197767132
aF-0.41830302614528625
aF2.8051526348854305
aF-10.554173133997676
aF-470.91999482160782
aF7.141467803169613
aF12.958644221864846
aF-142.03285239400861
aF3.2106163004795167
aF-471.48565667999026
aF635.19962492587649
aF4.3000307758134495
aF5.1303784344233234
aF0.38363192285396436
aF-13.947320657322233
aF28.200806937108176
aF-3.5416364943835266
aF0.71831087596946452
aF-8.1908118040977467
aF-279.24945072707987
aF-15.580341006824803
aF-164.39626343087542
aF11.729019839071636
aF325.07458853270288
aF-39.600721713040997
aF-0.77752688670440984
aF-329.13218771546821
aF-441.55021042966149
aF1.7247366058235178
aa(lp14
F1.2505863762091496
aF-181.38526322120802
aF-126.35288092759947
aF-319.53257649238566
aF-5.0704859722550975
aF-257.35819308803627
aF-3.7173105159172737
aF9.0241034212469309
aF-15.726582368077247
aF-443.44022911287288
aF-10.323927579249268
aF16.95863893375871
aF-187.49353227763257
aF-3.5133603825727495
aF-463.77523516649944
aF5.6259131508762907
aF7.8957408317808211
aF0.18065831932625809
aF-3.5357910984132239
aF-12.103494382197407
aF-7.2333513444354791
aF-41.772981851596612
aF10.309007301923121
aF-10.260195653495533
aF-134.08015932473552
aF-39.086078334036152
aF-164.89407244966654
aF-1.1092154456845285
aF257.90090844998588
aF-33.592864199124278
aF-0.86492365143110839
aF-63.266626416603842
aF-769.44498776550847
aF-4.5846276932997796
aa(lp15
F2.0698418901578446
aF-226.0539323617663
aF-108.14322522018698
aF-320.09076008827833
aF3.0914061546646447
aF-212.71754994929032
aF-0.94538125175185206
aF2.2039649309911105
aF-8.1062477464760363
aF-312.02711340166775
aF-6.3677917957825523
aF3.7537118765430058
aF-84.536418302118534
aF3.0165231611030352
aF-313.58672693266612
aF470.68611182041263
aF-0.41652555139729014
aF5.5235227304978833
aF0.50300834909434911
aF-6.8989804463207989
aF-2.8085082850294989
aF-19.961952987271836
aF1.0343891631362885
aF-8.6433780755475951
aF-196.98624193680737
aF-11.179627251145167
aF21.088351279299943
aF-2.528659427677403
aF275.29672643755555
aF33.195603660623405
aF-0.70419052719913933
aF-172.33213918440876
aF-352.87662039460889
aF1.3155987966011722
aa(lp16
F-0.051035298515604316
aF-1.930970419931606
aF-74.723408025595106
aF123.64614058752628
aF-2.9482341657646218
aF-58.597549663872172
aF-2.3776565569369352
aF7.6901842392301614
aF-9.2026836732929116
aF-126.77128178467402
aF-9.7965673488754543
aF14.361581576923481
aF-124.82530275600429
aF-0.66684948100919028
aF-112.49272949928024
aF88.168312096138379
aF0.95961081038376594
aF0.23089125359801554
aF-1.5371638622554258
aF-10.598773255258378
aF28.622995511236528
aF-11.407938366425103
aF11.571834773535947
aF-10.68904234560096
aF-143.21516136745143
aF-35.188571186115979
aF-81.653525672464909
aF11.828693699621972
aF89.31101462266534
aF-0.59690448032980681
aF0.045007622786516793
aF68.595396767857551
aF-650.38135420239405
aF-4.3870365499021906
aa(lp17
F-1.7684795395887447
aF-3.590692486024182
aF-3.9309615327498513
aF-2.5717347046142929
aF1.9924505437826969
aF-2.7364649856652226
aF0.022813670644700045
aF-1.6228279716275695
aF-1.115117229395387
aF-11.90906029322897
aF-3.8613941482773928
aF0.16634905113773679
aF-2.3801363350711777
aF2.115267687756675
aF-72.299184813945104
aF33.820972351779311
aF-2.3729292703542813
aF3.6581670316081643
aF1.1871302761639226
aF1.0814241326676126
aF-0.44811554113669688
aF-3.3024473039113977
aF0.61301153129120045
aF0.016813121911646921
aF-2.3035008686508682
aF-2.2561660351132793
aF-36.07582169117444
aF-0.37465189553440731
aF29.59182491229295
aF-3.6136006919370547
aF-0.23504326357883687
aF-44.180006204701591
aF-15.208705285203546
aF0.026404858499978427
aa(lp18
F11.171451268173378
aF72.559058135923792
aF23.208666768530239
aF66.516036870896642
aF12.065581099899193
aF-5.6386127629861926
aF20.785590728178772
aF12.74567272013134
aF28.521929930132014
aF0.39857458162172033
aF41.836078101183674
aF27.486855245361514
aF-30.626595789327894
aF10.107450738753931
aF-249.53938923089916
aF30.063738841259799
aF-19.25607803168873
aF2.4544197675235062
aF38.929149666709705
aF34.732548661663166
aF28.97486790826488
aF-48.457587303984056
aF8.4286983214698346
aF23.314424540770624
aF-38.256429217131242
aF-55.615921150935698
aF8.0494888934345781
aF12.089945288442715
aF-7.7680916280817298
aF166.9289095546392
aF11.42434254854073
aF71.191921541598546
aF-409.81386809799045
aF44.702454274704174
aa(lp19
F5.0992839595543256
aF-18.441300686839917
aF-56.175110036290803
aF4.6816961954461851
aF2.3333135343293994
aF-56.562309290333012
aF-2.0775868787044578
aF4.6511421463272482
aF-2.4358434482139502
aF-105.93894380166157
aF-15.449777631342604
aF0.39366138172866816
aF-27.732493263126358
aF2.396012234505811
aF-143.30039244150544
aF87.798968883563205
aF-1.1165976111017164
aF4.3706445983635982
aF1.0405501926139864
aF1.2573991135276021
aF-2.8797049716768344
aF2.7352303481901052
aF-0.58602104755187201
aF3.7993664872780477
aF-5.2085494562823031
aF-3.8887588721005275
aF19.802679379045866
aF1.115624524213596
aF119.04444512843622
aF6.2484755091050035
aF-0.88593320330258851
aF-100.6534004116883
aF-177.69238173279578
aF-0.044780788208535427
aa(lp20
F3.2940647795589295
aF195.92163920923898
aF112.14794403000508
aF251.74680837924879
aF14.122887304442344
aF27.228759847807197
aF23.083702407569767
aF4.3338641413879087
aF32.993292501925303
aF-46.560635623410164
aF25.577318067258634
aF15.557555912077076
aF1.8942663046437882
aF12.56807038928169
aF-43.107468631416488
aF-47.259163798192994
aF-21.11813389447649
aF1.4390544352499219
aF40.109610845379642
aF38.534950243089618
aF37.138128145583252
aF-46.420347566950767
aF-0.6456882431566221
aF23.31632199137724
aF43.67351478688483
aF-23.407544578676145
aF100.49950220067616
aF10.271758026875947
aF-91.020093551646895
aF120.46680075079703
aF12.727560095986208
aF368.91960840737357
aF-241.31369732207625
aF47.989139717720022
aa(lp21
F6.1218942675576598
aF152.28933755386799
aF132.05750230161041
aF447.9901851032941
aF0.59099034878937362
aF283.28803988918179
aF-0.83983413122911565
aF3.9345092501117094
aF17.358201607916424
aF325.17026011197731
aF39.830500864915173
aF3.2928983065008168
aF270.19344979110724
aF1.3021428084885791
aF784.53631173066844
aF-533.48285658213456
aF-8.2341480244390723
aF0.59411135602740306
aF15.271411559916631
aF9.9889353653594259
aF9.8426506671500462
aF43.218763329075543
aF-1.771169503063752
aF-2.4894093900674119
aF170.4083241674075
aF35.256393632135165
aF283.40839963108328
aF-9.1347391178601676
aF-510.17404453230222
aF179.43747799552324
aF-2.1161409661110762
aF259.01584107597523
aF345.14439750713586
aF-0.68353945867717913
aa(lp22
F0.83781367395265172
aF102.92051712058688
aF219.32032480289527
aF354.76117100094154
aF0.10257447276777007
aF185.55141567062452
aF1.0464714771564203
aF-1.6525367633497572
aF30.619637625260868
aF559.66355834017861
aF61.715432334716368
aF-0.58383908992854083
aF32.006520864705969
aF11.61751442438768
aF520.18596775838807
aF-390.53439561848893
aF-25.80047688839084
aF-0.15724507925261827
aF29.530848759968322
aF7.5478356733998346
aF8.0871160362090766
aF19.615373682559262
aF11.823326232114971
aF11.057976212136106
aF112.62343799999347
aF-25.91810906380373
aF168.78304003289125
aF-2.3229830969250265
aF-551.67574535783638
aF186.39202533244662
aF2.1555384446816959
aF490.28723259547559
aF441.4396409971045
aF1.0175718209934321
aa(lp23
F6.0575249855139051
aF19.976836164203256
aF124.00883416387035
aF446.11376536939213
aF0.060127968218155255
aF285.7662536550672
aF-0.41692069128847947
aF1.8407625623879786
aF17.216616133812117
aF319.21851568738401
aF29.678366083498393
aF4.202629254487972
aF209.60383415587793
aF0.93180592188173961
aF516.20506738015126
aF-501.59471134464621
aF-2.0346477898121087
aF0.98192574887307871
aF10.483116362063244
aF8.9781924114390073
aF7.604892377672642
aF38.56085957125913
aF-1.9610819165372155
aF-2.3935526073979396
aF115.0230729099701
aF21.577389171800696
aF138.63280143255551
aF-9.6964331837428457
aF-222.44113082430923
aF105.49390637959698
aF-2.076497843280237
aF247.58239535193326
aF242.71284789077887
aF-0.019894377342081521
aa(lp24
F0.51412701211521927
aF223.64434772860045
aF223.62915553357442
aF270.20354446784489
aF0.6219715577859849
aF179.56341702301125
aF0.5644424473698304
aF0.80316614514746143
aF-0.40802010863687432
aF425.24131279735133
aF40.02562719579543
aF4.1447525640076712
aF80.814250379069449
aF10.915928278054407
aF761.25738420881555
aF-407.85428590421458
aF-32.641189651145538
aF-0.10424433589591989
aF33.367563827880751
aF8.4939411263716913
aF9.3309451006797186
aF21.088044761356265
aF11.87291404461406
aF11.0020772784735
aF162.69616608295729
aF-14.947064572634748
aF293.44125690172598
aF-3.7717755609558914
aF-492.26545573381225
aF250.53759051275907
aF1.7838419027779875
aF456.26718412226455
aF567.77833926757341
aF0.91613954989262236
aa(lp25
F0.74377385021474518
aF172.3804738097067
aF57.895867645288
aF349.03862013495086
aF16.351254791236961
aF120.94039275623813
aF20.750289368623179
aF0.45691394389954221
aF33.836846317270179
aF261.18185914743839
aF45.02483115774573
aF-10.379935618829052
aF93.746165451734868
aF1.0360447797731942
aF361.5189082743459
aF-250.73384006101119
aF-5.5975624985185011
aF1.9274571155975491
aF4.1224804572524771
aF35.246170862815063
aF34.30211780375484
aF-26.380802607380669
aF0.69157225046492143
aF13.876057213329196
aF104.21660506202996
aF15.054104186918138
aF71.617213942836273
aF22.837366934836112
aF-523.43012617319118
aF63.884912685221927
aF11.529096706307421
aF91.824410379825864
aF358.21015766305783
aF0.96705391537633389
aa(lp26
F1.3588489192890594
aF48.171977453422734
aF177.38300137967545
aF370.40305955970911
aF1.0241711664739428
aF182.23494596521823
aF5.6366522644427546
aF-1.3890104347410437
aF17.147100809007298
aF352.82351099687264
aF37.922799549372996
aF-4.5083101397980201
aF110.05089690281119
aF11.94312691967332
aF393.04020934533213
aF-680.1116963913006
aF6.0792478348385952
aF1.2439909583441777
aF30.395832252748221
aF16.235938623543507
aF10.080365738465582
aF19.967114017333653
aF2.1473574014552215
aF16.313405078921164
aF145.29300084006104
aF8.5766326250995064
aF116.40574831356913
aF0.33718398738132549
aF-228.4201217300878
aF83.02535342383095
aF5.4433359847236353
aF46.298125802558481
aF403.93400440979582
aF46.414386289154258
aa(lp27
F0.50284064790005556
aF80.844606646930316
aF53.92707590409394
aF267.50152361082706
aF16.399487711307316
aF99.952478000826744
aF20.001386416822577
aF0.37142539694417426
aF33.172774327479317
aF94.84130616897508
aF32.927995230049902
aF-8.3201975556912231
aF88.805523927754635
aF0.67979680151552002
aF362.56732738083804
aF-232.06218237728515
aF-1.215407668213262
aF0.87832991550229
aF0.52663773499242483
aF34.829932116739073
aF34.294753009266472
aF-29.630822266816633
aF0.43928343659535762
aF13.785788991591918
aF98.40209875321554
aF11.979442852265876
aF8.4402686817764678
aF22.195127624966794
aF-451.51841307979328
aF62.950711782125005
aF11.598717355138509
aF80.011670782082916
aF255.84598777486039
aF0.70779672185139497
aa(lp28
F1.8939538379631484
aF154.17515148525138
aF177.78735881162171
aF362.58459867080524
aF0.7828638330302653
aF171.56825627473981
aF5.5540884989915824
aF-0.74293065128810964
aF15.287758620019147
aF514.14096551183809
aF41.061978212266091
aF-5.8115580616449352
aF73.515898536487086
aF12.117916711561625
aF350.24899228896192
aF-680.72185602943625
aF1.0726838358230106
aF0.51607539854781304
aF30.542880702984633
aF15.855001221409903
aF10.109660255314113
aF21.304617590195747
aF2.3795683371437559
aF16.301590746049747
aF141.51112214394055
aF10.151977639171607
aF195.97614201922403
aF0.0097270024437334218
aF-217.51029729954033
aF84.453150215671286
aF5.3412360054878558
aF66.306556781943883
aF401.68160923208239
aF46.159304179078362
aa(lp29
F-0.072430202830301868
aF-113.09648067281459
aF-67.977806511094329
aF-74.520734972029487
aF-0.061916100089676462
aF-21.281147421099895
aF0.080652971459432468
aF9.6413703288009902
aF-1.011605531474415
aF-73.672741577044476
aF-4.2478826395370817
aF11.088835997594922
aF-76.51384824847031
aF0.21445538471088554
aF-150.09692800829961
aF258.80156804406573
aF0.57791910022798176
aF0.49203515222218425
aF3.8579456025565118
aF-3.1462099312383889
aF-2.7025235905226146
aF-2.006920230836533
aF-0.161646655252382
aF-0.024260002845903701
aF-50.163777218298243
aF-6.7817817025627214
aF-23.759144781383959
aF3.2323803782246938
aF65.282229112376569
aF-31.569917090961198
aF0.29277907055026142
aF-52.504966157633291
aF12.449003683347028
aF1.3586282478489398
aa(lp30
F0.16984671629286544
aF-125.87746287508385
aF-108.52847485401077
aF-259.0946298579787
aF-2.0255130305584768
aF-18.567943661715734
aF-1.9538533062557808
aF1.6631373608645634
aF-5.1528495326085242
aF-132.87319500086329
aF-12.551012506216534
aF2.3100777651322351
aF-12.536713291960201
aF-2.5083511786641268
aF-336.34973019133599
aF152.37505045311246
aF0.88624956988176917
aF0.74190512904934924
aF-5.7388768878844809
aF-4.6325531778699736
aF-0.26015002322184705
aF-9.2544554494958433
aF1.144322572525462
aF-1.2093984158805104
aF-22.745105041448024
aF-5.2932736363201123
aF-107.04412617336195
aF0.72055781432055166
aF153.02753716024344
aF-31.536121710638106
aF-0.080841434986483579
aF-294.90377478513221
aF-159.43727427980917
aF0.36231224512491256
aa(lp31
F1.1532705432072643
aF-40.289156174456068
aF-50.990176948071444
aF-197.55026484308596
aF0.51461650493683042
aF-80.559735691978744
aF-0.10030101580034237
aF1.3235630476610303
aF-1.4543584641288156
aF-83.265346934317606
aF0.44660619414178093
aF0.84308313870815754
aF-31.233842652939124
aF0.91036599354976544
aF-158.25762204370236
aF100.75819221117271
aF5.2112676110641898
aF0.12953950722905014
aF0.34943309807161776
aF-2.2612177716148043
aF-0.39771324554672283
aF-4.9354631835922405
aF-0.22892347595359536
aF0.058538617252083563
aF-54.941479708118301
aF-8.6157071321520586
aF-209.17104605659338
aF-0.19018561083725175
aF69.560598394703334
aF-103.87286627217752
aF0.08708639011050251
aF-127.64889004160769
aF-106.57351187350095
aF0.11821375273249013
aa(lp32
F0.083010365877921946
aF-38.673289190734067
aF-63.573873786713527
aF23.83624767726603
aF-0.021824356172019312
aF-157.62744677269231
aF-3.047232014371148
aF7.4727904689317386
aF25.396357556810962
aF-191.96770108351279
aF9.0924470338611822
aF-1.2642433034932026
aF-1.9696532419142883
aF-0.15511006094314728
aF-239.83835316066268
aF431.65319725684668
aF-14.966728169448022
aF0.55481098521395866
aF-3.1056606875567074
aF-0.9953755583842343
aF-6.8583279365868872
aF-19.514487195869513
aF-0.67258578340068997
aF-5.9192067434937048
aF-75.992111353094955
aF-3.9911637964165694
aF-7.7458939738291415
aF2.7975150633661654
aF40.855396113360896
aF-47.505526036901365
aF-1.2547009967093488
aF-198.15818421997332
aF-646.75300417219489
aF-0.39653668780780643
aa(lp33
F-0.090243576801906034
aF77.763227818668142
aF-18.748488885161237
aF-11.740505254598709
aF0.32540073690698496
aF-26.564686278870518
aF-0.70065171045255703
aF-0.61171288343138841
aF-1.2160208428194015
aF-75.906772755899055
aF-1.0817683311725799
aF0.46875776125886731
aF-24.414652104385858
aF0.71174482286994045
aF-152.08300122355968
aF79.167978964642273
aF-0.021236781358997869
aF0.12204913344463532
aF-0.079184774112869352
aF-1.3842161571406582
aF-0.81954235372298057
aF-15.321769349698174
aF-0.58861403084549924
aF1.9891378300207294
aF-21.734436485150397
aF-2.4579178411179443
aF-29.32192570789525
aF2.2421995434533142
aF22.150668217701952
aF-9.3544620560615517
aF-0.45758621320188869
aF8.0310649477916485
aF-99.117720790226173
aF0.66655202945639547
aa(lp34
F1.5990234018617624
aF-127.5212244173707
aF-113.40499727677373
aF-207.03870612530517
aF-2.4065056236966726
aF-256.63154767283413
aF-3.2298624637011861
aF1.6517257928463611
aF-3.2635441869102664
aF-57.818797156543454
aF24.560545837161623
aF12.256824750588011
aF-146.79797525941044
aF-2.8031826425693636
aF-329.6889124840929
aF88.80201373094998
aF0.9353058920057038
aF-0.15740889835970018
aF-0.34258825541291316
aF-2.8848716810972057
aF-8.8770894286007493
aF-16.290089890234501
aF-2.0256392419224367
aF10.862123313109516
aF-48.11281587463084
aF-22.07069253167214
aF-107.07293463388238
aF-2.3939085433389584
aF444.61966550093638
aF-29.573601546680074
aF-1.5506976569742204
aF-163.20309471693056
aF-106.70645849353596
aF-3.6653011885912909
aa(lp35
F0.040749220284306928
aF-64.687590362915287
aF-19.915723889104967
aF-15.923781408476531
aF-0.14938049184483629
aF-45.483604806214451
aF0.047076241355039572
aF6.8018143538309372
aF0.11587388335342971
aF-14.032885828843797
aF-3.0099371871719782
aF11.441599132601443
aF-30.181612976784685
aF0.28950139983799966
aF-34.900548371707679
aF28.870960742470245
aF-0.41816226100611942
aF0.168111451577419
aF0.28962306032235663
aF-1.3743769894655338
aF-0.58241601168414547
aF0.54540488059172443
aF0.18238851004726572
aF-0.0024500709140591144
aF-49.710347752754821
aF-22.635452479059765
aF-40.50338579729943
aF1.145609871721063
aF24.828436155403718
aF17.10843846896811
aF0.10673426801734143
aF-34.289616301995082
aF-117.54451943877976
aF0.15753534225849511
aa(lp36
F8.0060794090868104
aF-102.01802950506422
aF-106.74322294833243
aF-151.53057047088544
aF-2.2988631703586537
aF-106.36496447243547
aF-0.9624889479817329
aF5.6424043634324414
aF-7.7378386872609859
aF-12.59997401701548
aF10.531984076918119
aF9.7303998021634222
aF-41.606195915078075
aF-1.7518640593246753
aF-426.21880938234966
aF407.92677204825139
aF1.4399718761487499
aF0.66851363720610424
aF-3.0305361411031271
aF-4.7110372531433171
aF-9.8639535287332709
aF-14.545649677242649
aF9.8783767579111004
aF-0.19587539125113751
aF-54.839811165578595
aF-55.600542213571067
aF-119.41650119481145
aF1.3640533223165388
aF121.71383745376707
aF-76.92199639640576
aF-0.87134704267274055
aF-387.14152651574881
aF-212.25829140453868
aF1.4411540319580654
aa(lp37
F0.37847548240534934
aF-2.3490381555969666
aF-56.387697827992874
aF-5.4150243797816975
aF0.39441991503833279
aF120.20604885340535
aF-0.33001474435703088
aF0.41770716529785162
aF-0.38883533910356588
aF43.384732760264335
aF-1.6667330756920791
aF-2.2859409971846865
aF-0.46062618175324888
aF0.22411946939987651
aF-89.554665662111049
aF-2.0731664067384288
aF0.3423367373713978
aF-0.59442710938516086
aF-0.017262239044944998
aF0.22854601768770272
aF-1.5092251297791766
aF-1.0594232766261689
aF0.38386963332477042
aF-0.86566650566747294
aF15.740357771402884
aF-1.0457231557712579
aF56.397112244031121
aF0.17116083256280451
aF5.3744961081729299
aF96.995476451133428
aF-0.0068265081866150561
aF-16.840139302694851
aF-4.6011528236899295
aF0.16969505783228159
aa(lp38
F-0.23061017357711491
aF71.865587981059392
aF-4.0039897772481199
aF-1.1261629875249226
aF-0.20098489465712902
aF-3.2859684849356352
aF-0.29431313890823119
aF-0.040100914951102934
aF0.08313825673538934
aF-17.769990041505093
aF4.4079117281409808
aF0.078511813930223537
aF10.593508539989996
aF-0.19313026421456372
aF-5.034223111522989
aF-42.286542038620105
aF0.27567742936588296
aF-0.3746764893707405
aF0.41828454012081978
aF-0.0004432746825834165
aF-0.57992216071579139
aF-0.63106079097389234
aF0.087489363638388135
aF0.2634003657153417
aF-2.288900206517912
aF-0.3971334395371991
aF-4.6286367602852305
aF0.12083033649056765
aF87.613782300088928
aF9.2103454704819097
aF0.088447257368656593
aF-0.68030137363798038
aF2.6129458428737715
aF-0.1712594708589433
aa(lp39
F2.9390894948247475
aF-6.5885494121095736
aF-37.26354578616936
aF137.86895535130583
aF1.2791660364648909
aF9.5605963124660764
aF-2.7361883237623346
aF11.604698299840823
aF-0.26599146222075654
aF-19.641509485902716
aF30.062291723821897
aF-4.0484157390758648
aF-87.799270711071216
aF0.60219462987572414
aF63.046935819587489
aF-128.96197213100905
aF1.1530232754655614
aF1.6651160321201499
aF20.922071838415032
aF-2.1406283929867986
aF1.2942014478236015
aF29.68460524862034
aF-2.612686154669825
aF-3.3007975688324738
aF-1.0960946525444342
aF3.2242068032033893
aF-58.635728298414719
aF-1.7300053338767627
aF-253.3966040566057
aF-36.572512758401459
aF-1.2301759421131848
aF-74.413962032089501
aF-64.266945437764917
aF2.7606351350512419
aa(lp40
F-0.19440257736853525
aF181.13860987785785
aF90.542997643753992
aF-36.492579317919983
aF-0.45332397176112244
aF12.370891142793404
aF0.93282181268631958
aF0.94603668875387326
aF13.277917340925942
aF186.05417730758234
aF0.20220875740440827
aF-16.158502264337073
aF14.898071663039916
aF-0.11310064317547433
aF92.957476169533066
aF39.433492258580458
aF-28.480150382936593
aF0.51804141918562352
aF11.532020333375565
aF33.699703155824587
aF0.44167458398059162
aF7.7425704728740889
aF0.65785377707947701
aF-0.50152878295291325
aF-3.9823936555920909
aF-2.6291768045632988
aF37.454317681259568
aF0.64828341904449882
aF20.688708250700568
aF85.831376927424259
aF0.52072050687618743
aF-47.038294852893856
aF133.96411510463207
aF46.148334767802929
aa(lp41
F-0.27341810036921366
aF-2.2001921929138986
aF-0.8677344103327238
aF-0.20682635173776673
aF-0.31347174749271628
aF-0.20283412376410834
aF0.08688802888572171
aF0.14190181784744091
aF0.16509621370478211
aF-0.55816783685913385
aF0.041696277446616088
aF2.1411208625612277
aF-0.15107103774824107
aF0.042759833030841105
aF-1.6183279999262612
aF1.677829441223516
aF0.38971891375838397
aF0.28690182656278967
aF0.31330658573115655
aF-0.49558240103900908
aF-0.247245378060271
aF-0.44246445324184647
aF-0.075164914785406503
aF-0.17791173111967259
aF0.1872745283398394
aF0.011426015648163113
aF0.15452971421245143
aF-0.41533997111135618
aF1.2785072330760541
aF4.7108827485010396
aF0.41280445521187231
aF0.25439335684039371
aF-1.0780830170859046
aF-0.28703467654104015
aa(lp42
F0.049397665670467744
aF-0.91629106783182501
aF-6.3679005381492511
aF-55.40204311833331
aF0.42372136478296929
aF8.6892260879429202
aF0.054074959119014492
aF-0.32813144186396359
aF0.27256881051454546
aF-1.4628124947204353
aF-0.25173400546559516
aF-0.29965018931614334
aF-0.027242433319796373
aF-0.23332845435116345
aF-2.0264029833634067
aF4.9556426591393086
aF0.36939896780512849
aF0.11535002285169839
aF-0.12133479309753481
aF-0.11410206770487608
aF-0.22137963138201741
aF-0.63478663480645947
aF0.36188098326896251
aF0.10722353748998056
aF0.048810985871262494
aF-41.725831820032859
aF-1.4493527498819174
aF0.13897663832643145
aF20.548116194383944
aF-44.949655669686805
aF-0.24089642766308447
aF0.24335345490028729
aF-2.1664947467371958
aF-0.22519518308260963
aa(lp43
F-0.01784564063951791
aF-13.662619157480208
aF-2.056727359958161
aF-1.0063254231367798
aF0.18001239762680912
aF-1.6028607731505267
aF-0.3113580514531612
aF0.2892876922896811
aF-0.32913091343812007
aF-7.0094446765874645
aF-0.82119168947081644
aF-0.24542673404129897
aF-25.066511897748516
aF0.20831327121903004
aF-0.50469046355004532
aF0.50865879567642669
aF-0.18573919768902494
aF-0.18233741175648749
aF-0.35867288598383046
aF0.095984496705950148
aF0.26447725683955425
aF0.20487245043717092
aF-0.24170795359783745
aF0.17758400720559378
aF2.3805051993819459
aF-0.43533263173334813
aF-28.501555490535857
aF0.80830423238457727
aF0.73480002175894565
aF0.48700725056265326
aF-0.052333758162362097
aF-1.8107373936895343
aF-0.1968169619201626
aF0.080994652410442305
aa(lp44
F0.36861004064577751
aF-0.77771341607196787
aF-0.80942160542557606
aF-0.0076902089680655691
aF0.25491421608459147
aF-2.8247294331419415
aF-0.064731202946082728
aF-0.30595992095655133
aF-0.0034723473815276157
aF-2.8676886892770153
aF-0.98444573986896466
aF0.60279971984078917
aF0.31789715474915314
aF0.37651003934118349
aF-1.0420373416819022
aF-172.94256544758491
aF-0.1454903918551439
aF-0.48168056308359181
aF-0.12832660073453336
aF0.046414754611263993
aF0.18320213334938282
aF-0.36260828792852323
aF-0.22688526658879521
aF0.0250523179192177
aF-0.056955997671578634
aF-0.22299403229180581
aF-0.78660599752524352
aF-0.56895981648820171
aF99.970966440004901
aF-0.35151459326333712
aF-0.4826113833858916
aF-23.792551907860986
aF-0.30419289270938249
aF-0.32505985964896161
aa(lp45
F0.0083855971071099024
aF-0.59013892665612078
aF-0.8672288445445191
aF-0.26172973335991601
aF-0.44253738740701576
aF-1.0185556117942955
aF0.0057578162561199653
aF0.039498166759528781
aF0.1432191702785473
aF-5.8762202565727746
aF-0.61550395701476068
aF9.3884105964688498
aF-0.080675511021433721
aF0.20006909940071696
aF-0.65827037465946969
aF72.468282488179412
aF0.24078510945903764
aF-0.016039840897472551
aF0.11169457017359349
aF0.045668247768344127
aF-0.4607482638214358
aF-0.60164619377539086
aF0.00051119610290933351
aF0.26124622945726922
aF-0.3549134266676966
aF-0.05895339653477704
aF-1.2477450153637393
aF-0.26834897533559504
aF10.173538413307488
aF-0.43169080758855105
aF-0.3327760169645731
aF0.41837781525053858
aF-30.338563433059708
aF-0.16439259171407936
aa(lp46
F0.20097889749452419
aF3.1477690928322097
aF-1.0572281063732152
aF-4.5179115673569923
aF-0.43128307688348755
aF-1.4857827451613557
aF-0.40083638934579197
aF0.28497365967315713
aF-0.56599633738870736
aF-109.71105934764878
aF-8.0556824567451457
aF0.29837892963557683
aF-0.62862749429814302
aF-0.1231194362693849
aF-2.0703883254914093
aF6.9898264398450092
aF-0.13652704411752689
aF0.089849799407621195
aF-0.46612136353772055
aF-0.2726832042457063
aF0.34281834070974215
aF-0.23367257434969896
aF-0.10801042882334198
aF-0.61262480883488224
aF-0.32787308768651446
aF-0.084400089020603697
aF0.014709631440262263
aF0.02384220521933271
aF55.980263301804293
aF-0.53773729414172144
aF-0.1063737639029876
aF-1.545179084527766
aF-547.9202221693231
aF-0.18036443884294573
aa(lp47
F-0.14279739411049194
aF133.43056026732802
aF-1.2961893631715757
aF-36.869877591721334
aF0.31566835453155989
aF24.659586265572738
aF0.28050090432612279
aF-0.13012596252817796
aF0.79543411213373083
aF182.32870745091645
aF-3.178429025828859
aF0.18788813262446083
aF-0.066255291044530554
aF-0.38321850044936517
aF6.825381685001469
aF97.00721272501363
aF-0.38235816644595799
aF0.052586382201113002
aF0.090761272840734264
aF-0.92707831923152473
aF0.23725196607914725
aF-0.091183535056432369
aF0.17145217081673342
aF0.071712565269487771
aF10.522194705204834
aF-2.4072243428237838
aF-6.2430893877126534
aF0.3385660679854765
aF15.986189602159318
aF6.8160638471292145
aF0.055181948110946809
aF-9.5541483973671948
aF-26.086184629822505
aF-0.68704606066777041
aa(lp48
F0.17151095329394456
aF19.398806525467009
aF1.6547014963948152
aF-4.749888178211326
aF-1.1829538627785812
aF-1.406730183124288
aF-0.22139746396818427
aF-1.0100476389873592
aF-1.4885734537252093
aF-3.2780227878646708
aF2.665321909279458
aF1.8457247973094333
aF-0.56338182606539522
aF-0.3851906317095144
aF-4.4635194842856167
aF0.45696838868298278
aF-0.036532963575101697
aF0.0075018741508611634
aF0.39907189423773803
aF0.16664703354452856
aF-0.48545003071759174
aF-1.4201121637582361
aF0.28421897181078004
aF-0.20274461758836979
aF-0.28985981321046356
aF-0.78522496508460304
aF-11.79256932435476
aF0.13496170564483062
aF-0.99553564573099096
aF9.8056084418703087
aF-0.1184764032036293
aF-13.952640589636307
aF2.709209587054163
aF-0.53594740564115073
aa(lp49
F1.2249133771404377
aF68.351349727883218
aF-7.1109215130307293
aF-39.759385456540947
aF0.39425661636033899
aF-46.376204575122621
aF-0.40797802719637932
aF-0.1315143027697159
aF0.49247953689028773
aF35.847922572714054
aF15.048340573062479
aF-1.5671593730275237
aF-0.97114017396217567
aF0.19707083298886119
aF16.623515181289516
aF1.2558513157643756
aF-0.13583479449424959
aF-0.484177770559931
aF0.11974076438177315
aF-0.29776116011564796
aF0.44570245542801362
aF-0.57175634796912889
aF0.17273944910779693
aF-0.39964880844682005
aF54.274282765809673
aF-1.6656575510717446
aF56.942254457260496
aF-0.38935177125509685
aF36.721111988794753
aF98.143272371843921
aF-0.14073687031500187
aF-4.0463278381286978
aF15.34465119620306
aF-0.41387346949609582
aa(lp50
F1.5297538591371571
aF52.375747562705612
aF53.227127841891942
aF64.255224071856929
aF13.495393284659947
aF-260.34500009118932
aF-3.0567269204420442
aF1.153775847757905
aF12.225255987969684
aF-115.95269172917925
aF7.8054945223276988
aF11.329345356520712
aF60.799922801418148
aF-1.449858667181974
aF45.971086577546693
aF-24.285398620027294
aF-24.567172141655451
aF0.93087601285916
aF-2.9501669422128423
aF35.43691317248183
aF-1.1027393297472319
aF-34.394218937778064
aF-0.73744409476727002
aF1.8413873268146694
aF59.921096942000489
aF-36.246903319127227
aF21.380965185303815
aF-1.9978325415691793
aF371.64412143176361
aF167.07814118622301
aF9.8953584765593146
aF185.36450828320585
aF-305.45832015968455
aF1.3641663146639167
aa(lp51
F1.388177439158321
aF-116.48911531033049
aF-5.5884259581998084
aF110.29659345135322
aF17.464922134225276
aF83.413556656744291
aF20.277388005794112
aF8.421944013324639
aF8.9925663113873
aF-140.66729257733027
aF12.388530062806511
aF17.297941483339194
aF-139.78982291950638
aF3.0671152720204842
aF-28.891074754584313
aF-3.7953708789146212
aF-24.06111517954637
aF5.2318980850937544
aF51.005534071132942
aF-4.3151518402626063
aF26.212273701265495
aF-22.244487126925588
aF1.0714828109024124
aF2.9722372000829944
aF-137.84334453411353
aF11.412931163097385
aF-12.670817641905943
aF14.914201362607946
aF-60.856345570987315
aF120.40928997115718
aF2.1445161487640569
aF-234.84465246913788
aF-584.55308076362326
aF1.7662092832599756
aaa(lp52
(lp53
F-0.38607411524900354
aF-0.0043928633020843934
aF-3.4131484668995786
aF-0.84603739329894034
aF1.3832607800428536
aF2.6990897968255521
aF1.8344273342792572
aF-1.8996016296366049
aF-0.91666114923537634
aF-1.990325725777029
aF-5.0715187889984579
aF1.5495203929464607
aF-3.2096450310960778
aF0.4440107337679392
aF0.79702153693365752
aF1.7152590251034552
aF1.3943945150599335
aF-5.8122879575701099
aF2.2306694497838837
aF1.6278566118182829
aF-0.9477361916681537
aF-4.2327003622652981
aF4.7631866198519619
aF1.2563979088219506
aF0.53226025683251577
aF0.62023124202680879
aF1.6897011961069988
aF1.3033584438236345
aF-3.4550938994621125
aa(lp54
F-0.42462226813098675
aF0.0014873251149721946
aF2.2316353397995377
aF-1.1491179632937305
aF0.42322967373547499
aF2.1412826260543762
aF-0.85917884086822305
aF1.5848223660585508
aF-2.0970996917234048
aF1.2493726567540182
aF2.5391182651871489
aF-0.34627164641158464
aF2.1716118163401066
aF-0.50029384354170925
aF-0.19265832491219645
aF1.8132228790547238
aF-0.90389879410725971
aF-5.1648460360790871
aF-0.76270743586988921
aF0.36315412201971831
aF0.25414644117522556
aF1.9399864999905194
aF4.3477050042584882
aF1.3222827501821228
aF-0.12559042087304503
aF0.82779190315561046
aF0.12432953904364152
aF0.67929469515692764
aF2.5045998703375525
aa(lp55
F-0.70494470865789638
aF2.7461387989293033
aF1.3699988590785437
aF0.50314923427136238
aF1.158204506722579
aF2.2484546294285299
aF-0.88376186167578064
aF1.9666922597931136
aF-0.19339846424523693
aF1.3223248633642819
aF-2.3561272828470954
aF-0.58466261805378283
aF0.075518095936306359
aF1.4011294699967041
aF-0.6623945842128256
aF1.346549664362372
aF-0.11885281699729118
aF-5.0122349047724581
aF3.1566906732356736
aF0.59122917758774673
aF0.3085178791214877
aF1.8485026334890788
aF0.50348025715829159
aF0.17265092065844029
aF-0.49956227236189454
aF0.37830730540315333
aF1.5798819657491483
aF0.12056120679119228
aF2.7092668935952928
aa(lp56
F0.45250764884429079
aF3.4110081722180006
aF4.6734369918402292
aF1.4886551516558177
aF1.4559235350905435
aF0.31836874128701259
aF0.21144574869809718
aF4.3662654236867784
aF-0.74544716199829397
aF2.6390810707791506
aF3.0671248695747804
aF-0.0087464044109208956
aF1.9261852014702048
aF0.14918855034728648
aF0.39709958051057515
aF7.5330773850104453
aF4.4041777581890846
aF1.3428896957338645
aF0.4808363774851746
aF0.055965771400236543
aF1.6996559360499233
aF3.6774677734377752
aF-0.4755246485467215
aF-0.47890570846506852
aF0.71279142865642264
aF-0.0096010786478788555
aF-0.027986722772742494
aF0.43647602377470301
aF4.7488076576551368
aa(lp57
F0.44717415066781235
aF-0.070362877493393955
aF-2.9966469057226455
aF-0.94174901397078825
aF1.5516376253179245
aF2.0142745320820148
aF1.2136728405094084
aF-1.7933436179692099
aF-0.76118095014995757
aF-1.4308386910393236
aF-4.7200795658060288
aF1.4527824105783047
aF-3.7789488267806304
aF1.3014322841212542
aF0.83724474551871764
aF2.1484195883536077
aF1.2435826650175581
aF-6.3790446099775506
aF2.56484945353716
aF1.5454614180297865
aF-1.1356059361434403
aF-3.8100804415123788
aF4.132508969611977
aF0.24805121141959488
aF1.2224055460873959
aF0.68389358182431781
aF1.4281439081525247
aF2.0615419153689669
aF-3.3566966187145089
aa(lp58
F-1.0936565502403701
aF0.75184895518261774
aF1.6146626721171464
aF-0.32883368399186919
aF2.1019857849448367
aF2.1615989737480299
aF-0.99199513622582813
aF3.7811531394049731
aF-1.6196801920041981
aF2.2350720782721916
aF2.8903965243130711
aF0.62556756637509825
aF-2.0337080262065665
aF0.64061861190415603
aF-0.89796956977575471
aF6.6379090993552987
aF4.6258378429515448
aF-5.124543152796968
aF2.4619063474629219
aF1.8455440887794361
aF-0.58962810074273042
aF3.4064599367954411
aF3.9701345988448358
aF-0.15539000683681645
aF-0.22695054307501042
aF-1.0407338485669633
aF0.81346914146849358
aF1.9108220814519374
aF4.2056400972819903
aa(lp59
F-0.17482481166577865
aF-0.82438456333959098
aF-1.5260544390727335
aF-2.1217923993805901
aF0.5267145622769418
aF-0.44797546706248637
aF2.1506274627642763
aF-2.2247040299536054
aF0.050060259984485128
aF-3.0577354247937532
aF-3.1777111645050362
aF1.6667544124649485
aF-2.0424338278012146
aF0.20223834263918589
aF1.6751035050026992
aF1.3071300483661579
aF1.0910350211288034
aF-0.41178126009077193
aF0.39337602915444064
aF0.37138328782358687
aF-1.321895745705955
aF-4.9533367417669023
aF4.3100839675941796
aF1.4379946100585939
aF2.0286605159806315
aF1.6056103065498659
aF0.41384690523223311
aF0.16962468395649574
aF-3.9693744566958347
aa(lp60
F0.1579244173058425
aF0.34689442280518168
aF-2.4466563267842707
aF-1.4342661636012157
aF0.34324559899661189
aF2.9028731513040804
aF2.270827688602135
aF-1.7343092748833131
aF-0.51361987926857211
aF-1.7862337725015187
aF-4.4765442470547416
aF1.1103518694236441
aF-3.0940227925436283
aF0.56292692085891505
aF0.61089880324282253
aF1.3631231578517704
aF1.5552171539962116
aF-5.6183242154451838
aF2.6177082549227833
aF1.2078266363769257
aF-1.3385084450350304
aF-3.8337472552630838
aF4.4711926816791401
aF0.34965320469666339
aF0.83072351290761914
aF-0.21397469410531941
aF1.2782775308045891
aF1.6118251429508692
aF-3.2590120626891284
aa(lp61
F0.32980515918982417
aF-0.16824631498631276
aF-3.3121487683024444
aF-1.0311941157813291
aF3.099511719192082
aF-0.38595498606586898
aF2.6298940137962337
aF-2.9250820233422394
aF-0.047075210630570206
aF-1.1094506150244685
aF-3.0149075052222751
aF1.2229637744551882
aF-2.502133256706482
aF2.1458512492786772
aF1.3556965467098041
aF4.3559169155911777
aF1.7021132788481159
aF0.20850547584878754
aF2.6910326702505016
aF0.87919815015948488
aF-0.92303793938657475
aF-4.4363656472077926
aF4.5326419377527154
aF0.63865494709895299
aF1.7875620497599132
aF0.32969262844252312
aF1.4023502950338607
aF1.5066679537543388
aF-4.4653223369661772
aa(lp62
F2.8331105249643951
aF6.7257337344108343
aF6.0907207662450054
aF2.4855421822074466
aF1.8853689215799065
aF0.23779416667341535
aF-0.29623146895714297
aF4.479125836028973
aF-1.2397734608045761
aF2.8518167604730968
aF5.5469357032878186
aF-0.53778437211036734
aF3.2087988931731619
aF-0.21349469845490915
aF5.7208326094541455
aF3.9177686199255977
aF6.4606580632240984
aF2.3610874983219992
aF0.083417292244543959
aF-0.076216381074056261
aF1.9158134947272938
aF5.6097088734386276
aF-0.052368678082612787
aF-0.45574286788179019
aF5.2905086612676451
aF1.6097522483795321
aF0.35939397080875402
aF0.19738897423943946
aF6.5614625934040509
aa(lp63
F1.9514371475545036
aF2.895532805889967
aF-0.48509311785799231
aF-0.080821704490609089
aF0.32829256064200224
aF0.35730766695923655
aF3.2770302860215708
aF-2.4902734844313406
aF-0.43991573761743885
aF-3.1467346949127259
aF-4.7742127425706871
aF-1.7217629751878047
aF0.47805698734947605
aF-0.11283947195943651
aF1.9318988977040219
aF1.0820545523528295
aF1.893868064026349
aF1.392760479500206
aF0.47713579083909646
aF0.49317351694305295
aF-0.11220681222304719
aF0.93690547728319051
aF-0.4962730983794667
aF2.0629504894933848
aF2.4111920413859278
aF1.5604096257340179
aF0.21401929812899737
aF0.47043578927007429
aF-4.0931660682344084
aa(lp64
F0.42841676118317845
aF-0.37560104440614445
aF-3.5106821657314562
aF-1.8031589365265555
aF0.64678666093815729
aF0.076574490686343616
aF2.0365832600422529
aF-4.3031552385018292
aF-0.5662418558956871
aF-4.8287127821855984
aF-5.7804057463787064
aF1.1875225988154827
aF-5.2770105514892567
aF1.092294109963944
aF1.5779438791298597
aF-0.38010782476328819
aF1.8553306581388755
aF-0.27068492960594709
aF1.1982029004025765
aF0.84242941822168593
aF-0.99609947447969738
aF-5.5548234216381394
aF2.3056946920060728
aF1.4140352409717818
aF1.3841880973687168
aF-0.072936568260546356
aF0.34060602080232211
aF1.8890449636832292
aF-5.2576541330409565
aa(lp65
F0.21209059327525134
aF1.8477156270529178
aF2.4339574452422976
aF0.51244402334308226
aF-0.072050861127996538
aF0.45588958123996259
aF0.55462161565205481
aF1.2735427781228694
aF-0.34857031084818008
aF0.72240007923997807
aF2.5294516162056162
aF-0.22465288780535023
aF1.0354002526327291
aF0.50199159687245842
aF0.56026340781135242
aF2.4684312626502325
aF-0.25911621144813118
aF0.23764331456529303
aF0.35886741539700401
aF0.54744775448887828
aF0.9084455748774104
aF1.3372060616844292
aF-0.46698228584995433
aF-0.26059853260995158
aF0.74217257000068604
aF-0.36571607906599685
aF-0.19122716520452912
aF-0.28319663788902061
aF2.1247541423405236
aa(lp66
F0.0015146282407722384
aF0.071340677137793559
aF-2.814954420304951
aF-0.87858929965677635
aF1.1683324315126646
aF1.6796360306946865
aF1.2899374387813078
aF-1.2764865382298363
aF-0.69511832786944439
aF-2.3601242996635996
aF-4.7572102390922328
aF1.4285053434638013
aF-3.5895620967323461
aF1.2792947439698565
aF1.0852712136550182
aF2.1359127764416774
aF1.0711532062929239
aF-5.7327376103992806
aF2.3310609776976534
aF1.7302419046368847
aF-0.80366043743475657
aF-3.6487060623814194
aF4.3784227450539657
aF0.34450813814809211
aF1.69479838606026
aF0.56231252502247142
aF1.2699226048346028
aF2.012449692347035
aF-3.2308681328852979
aa(lp67
F1.8064481788578588
aF5.4977013406109698
aF5.2153515031768816
aF2.17165723582599
aF3.3224598482224579
aF1.7340465324418719
aF-0.80972141014986154
aF5.7493559931098046
aF-3.8891177525735032
aF3.6869348553837624
aF1.4125036626580871
aF-1.4601117460605493
aF1.8547213858405871
aF0.59018281996836497
aF-0.94862899782161503
aF6.8788062333925382
aF5.0030889785782264
aF-4.206608531748234
aF2.9409610459207958
aF2.4390995864440486
aF1.6028291064020492
aF4.9042225049673247
aF1.2302383143668214
aF-0.56846017083624145
aF1.2419829935496496
aF1.8221491006862782
aF1.2291038979000597
aF3.0549838604796418
aF6.8158396094559892
aa(lp68
F0.54875105184337547
aF-3.3273153936240476
aF-5.5434215157949067
aF-2.7843867634553217
aF-4.8952671580752636
aF0.12767433766663669
aF-0.27174266885427828
aF-8.3222886320775711
aF0.17115778319871008
aF-7.3581728252898575
aF-9.166032495323055
aF0.81751770745606434
aF-4.1080661402921246
aF-1.5342516533391397
aF0.20703093823971819
aF-9.7860668091191432
aF-2.6579571877521357
aF-1.7796356719811375
aF-1.9869068414167386
aF-0.14016586449294594
aF-1.6383487028419679
aF-4.2527151610914089
aF-1.3646625018484702
aF0.12366711143085239
aF-0.76032906492348173
aF0.050794835646805023
aF-2.2518261201261289
aF0.20602243673291534
aF-9.7402911630157654
aa(lp69
F-0.24495878517198397
aF-2.5308536875623022
aF-2.8699378274016336
aF-1.1386208479712598
aF0.91292693712594597
aF1.7983677483421978
aF1.3696544475953518
aF-1.6354279780141892
aF-1.1023068839576542
aF-2.1450957047026273
aF-4.4583058376794407
aF1.1461821863794521
aF-3.9187686529825334
aF1.058212514151353
aF0.86351476196716503
aF-1.5156703426013012
aF0.85262250020245245
aF-6.3406735842128521
aF2.7476590229722455
aF1.4664691041237536
aF-1.3222093536038573
aF-4.6614810796323276
aF4.4824763277792625
aF1.0211888893950543
aF1.183105096451579
aF0.77233138890184805
aF0.73480517098129916
aF1.3852848008648981
aF-3.0540866922949035
aa(lp70
F0.17620545593868117
aF0.5058118060440252
aF-3.0370651067648247
aF-1.294265223153241
aF1.2386381232794685
aF2.4633694730451419
aF0.97172310165042863
aF-2.009329656376555
aF-1.198337148594971
aF-1.9201439593605936
aF-5.0169521603673459
aF1.5381444068907619
aF-3.1021603014552275
aF0.86492450654938791
aF0.71198541809357596
aF2.0193417924008528
aF0.98899603247231704
aF-5.8776347372899931
aF2.7246798144665503
aF1.562236445625754
aF-1.1804940497520813
aF-3.8807519214704773
aF4.6213142907669171
aF0.51219151371804206
aF1.5107607900736013
aF0.82717979829920429
aF0.81283142678755849
aF1.683260233041926
aF-3.8618430197319351
aa(lp71
F0.33192536687372592
aF0.18545216807964085
aF-2.6382544777696646
aF-1.3848604007688918
aF1.0184572904581168
aF2.2803491299005096
aF1.8072002174078252
aF-1.6460933938144184
aF-1.0913165429521505
aF-2.2998126665603582
aF-4.4352257253494987
aF0.89906604889656783
aF-3.4169883076051306
aF0.44355570529974642
aF0.88528491909488727
aF1.2555862314785589
aF1.0115163265818747
aF-5.9823446372454478
aF3.1231472261707771
aF1.6262704631716096
aF-1.4685330904350213
aF-3.7994684660898002
aF4.1359167617694448
aF0.39629823083565174
aF1.1866473372971442
aF0.025336594190629384
aF1.4695504527234124
aF1.655755071895979
aF-3.4244745664424743
aa(lp72
F0.78573656275119286
aF3.1749904748993938
aF-1.480398001139104
aF0.14376740265956256
aF0.23970476479209524
aF1.8662640564281598
aF1.612118025221478
aF-2.8759625398819937
aF0.02365371702110752
aF-2.9040212399790408
aF-3.4852853265333024
aF-0.79324271593971973
aF-2.3273094747334051
aF-0.17135806008156659
aF0.79180416280086985
aF0.90368853761039702
aF1.0102405233960556
aF-6.239815341509507
aF0.32465106577692998
aF0.06456820748766906
aF-1.6863471240941934
aF-4.9420534254815642
aF4.4155531702461275
aF1.0554589023866856
aF1.4887073875758383
aF1.7596266167225876
aF0.65422019026113465
aF0.86349131674740831
aF-3.7764027955635857
aa(lp73
F0.10852507835002176
aF-0.23407948993655889
aF-2.3402983822216781
aF-1.0259970021316365
aF2.752386503357974
aF1.7264873204540319
aF1.7410467403353995
aF-1.8087818096493742
aF-0.84832573221904561
aF0.8778279906437676
aF-2.1927235441761894
aF1.2802566562185229
aF-3.4266879935765693
aF2.764594297747383
aF0.98056444802061626
aF4.1727796536697426
aF1.2050663861626125
aF-6.1756369795266126
aF2.7256433820147965
aF1.276877751660334
aF-0.49745585465724873
aF-4.180383932136774
aF4.1339308717429448
aF0.51863135022613482
aF1.1016757883492296
aF0.35943144359008278
aF2.9561526865584926
aF2.2317244839156625
aF-3.3851715897334844
aa(lp74
F-0.20044358123322853
aF-2.6757921001421741
aF-1.3165677680227292
aF-1.4088187275820507
aF0.75528119589122666
aF2.9329276649291183
aF1.7484543969537067
aF1.0128112883657445
aF-0.5888910481991112
aF0.71921565769254359
aF-0.19111756900355401
aF1.5915355498391668
aF-4.2884272559546455
aF0.90169589692610974
aF-1.6006699264674669
aF0.3026694785237769
aF0.57847844917821689
aF-5.327346642612941
aF2.4308058763236793
aF1.3709452367842021
aF-1.7881646750404891
aF-4.9353477409661757
aF3.7766969374172779
aF0.0076404897291311212
aF-1.2059111084415168
aF-0.84761137077012749
aF1.9831079531353382
aF1.5627559504515729
aF1.0614151599167057
aa(lp75
F0.091022764235909978
aF-0.2693858257340434
aF-3.1296183953928267
aF-1.7923667818734306
aF0.42403946779802643
aF0.03945373494292808
aF2.7398143159760369
aF-2.1610039218321941
aF-0.43529241794629359
aF-3.0297174421959454
aF-3.6376846398924951
aF1.3270129073331975
aF-2.6039332624031974
aF0.40801737041059466
aF1.4735084559437142
aF0.49586413842010968
aF1.8181991407886999
aF0.55485794127708166
aF0.14191797739673087
aF1.4188747572094347
aF-2.1521270296392578
aF-4.9117949219836774
aF3.160118330693821
aF0.53308898158857154
aF2.5260405548251996
aF0.15960069755763759
aF-0.21183586304710023
aF1.2089473518356688
aF-4.2235050007740105
aa(lp76
F0.35491090107206652
aF3.2112735124399006
aF-1.4821861541358321
aF0.70414962609049103
aF0.71533719130139806
aF2.0639485005098139
aF1.4460207564587595
aF-1.2233626222184042
aF-0.0047341831870061574
aF-1.6547307515480671
aF-3.1230054445082844
aF0.79148552517765947
aF-2.5242629416200626
aF-0.47372683435353913
aF0.70881289793038105
aF1.2590986239001556
aF1.2632547317782468
aF-5.7145352235497562
aF2.6190604784198865
aF0.76901256646348604
aF-1.8014162158089884
aF-3.9883596003843635
aF1.1083865361580076
aF0.6349278011770515
aF1.0783245449830416
aF1.167637843871322
aF0.41231550606079492
aF0.43960340114762025
aF-3.6076842471225992
aa(lp77
F0.27026152766308548
aF3.3303425406817184
aF0.0072446904508336411
aF0.37770254309361156
aF0.27485285177032154
aF0.31341962459228956
aF0.55635270214708721
aF2.5853587992703506
aF-0.66052596138415776
aF1.1152988789224558
aF-0.51424279404027651
aF0.3197016434694408
aF1.6071640402755991
aF0.47435639613012182
aF0.50861084825388936
aF6.0331351411497307
aF3.3354197772058747
aF1.4336937271654324
aF-0.1972794119873193
aF-0.07478253389304157
aF1.3218990096776488
aF2.5542386384470439
aF-0.59188925513424173
aF-0.31734345254294921
aF0.31335492094328188
aF0.23503996863000659
aF0.47518446003889825
aF0.072577415953951313
aF2.9478470666221988
aa(lp78
F0.2163446484468329
aF0.4733288622041722
aF0.53281156021866161
aF-0.11553930944645203
aF-0.65534188037758112
aF0.58826332544851734
aF0.42051606989179363
aF0.019691340265552391
aF-0.3919320061739735
aF-0.21928623020097066
aF0.055707321805371787
aF-0.094021648172387756
aF0.7507876130898824
aF-0.10102503476834433
aF-0.24894507984741795
aF-0.57150496599882772
aF-0.87560633596435034
aF0.19748659203993613
aF0.73284491999094792
aF0.33256062251304558
aF0.58105954928770598
aF0.47350464165489203
aF-0.30226818442777365
aF-0.072554887424945161
aF-0.20770603424292988
aF0.55209974687341268
aF0.58099538049578447
aF-0.18882067077876352
aF0.33924989718820919
aa(lp79
F0.012273113748418019
aF3.7126135003976257
aF4.3885551198882498
aF1.3800721764204191
aF1.7508424803122082
aF-0.31163116699428201
aF0.32316361474385097
aF4.0644146389952818
aF-0.22949870203370107
aF2.6387272743966412
aF3.405656341989074
aF-0.092777990816051689
aF2.1203960584783239
aF0.28169923867328145
aF-0.0028631825326666618
aF2.9958348345799841
aF3.6103343259525018
aF1.0325342579427346
aF-0.0055930856179897065
aF-0.10682867386033365
aF1.0051180113713443
aF3.6820335441148706
aF-0.036638147281023221
aF0.094881588863480651
aF0.25220577720579951
aF0.26777557748290864
aF0.2492798534581889
aF-0.17420742339504527
aF5.4140081145998762
aa(lp80
F0.18254008989741691
aF-0.10597728662227647
aF-3.4682161458460579
aF-1.4670929312462586
aF0.12435394116683264
aF2.2225748193292394
aF1.8128136835126043
aF-2.5758897927008317
aF-0.97629153978047278
aF-2.2262996861983924
aF-2.6749032627416374
aF0.79156213888264626
aF-2.9680120878124674
aF0.33371285527646732
aF1.4303933762384899
aF1.9830986161516924
aF2.7285620285705341
aF-5.5315976637174193
aF-0.11328053476398585
aF1.6487291190546847
aF-1.4391127660778362
aF-5.0947839993558057
aF3.8366784250388397
aF1.169695207751446
aF1.5926076192915788
aF0.4361147411649034
aF1.9087915103794404
aF2.2640645874946101
aF-3.8046702213345132
aa(lp81
F0.057940917622557556
aF-1.3239078724357887
aF-6.7861325663141345
aF-1.7697260351147572
aF-1.5098209624304788
aF0.1080763791577655
aF-0.60419396935795455
aF-5.9455681230358541
aF0.74170580434586064
aF-5.2623468727915812
aF-8.4524311998446464
aF0.27929659949072916
aF-2.5163989505632642
aF0.40839413154597803
aF-3.8148484025930549
aF-2.2186034384474458
aF-1.9846922931352158
aF-3.0504548691460944
aF0.51307228913772618
aF0.52712998538020339
aF-1.4538882086746043
aF-9.2246949011951944
aF-0.29579012669698895
aF-0.49331805090754099
aF-0.50523784418936424
aF-0.81815537489533219
aF-0.30035191282214024
aF0.25440258506373903
aF-8.5205229247838261
aa(lp82
F6.1351886316240654
aF3.0402830463095847
aF-0.99988373151577215
aF-1.0079640501164528
aF1.0772596864150579
aF0.0023968549656383769
aF2.6118825003409838
aF-2.4102873533524996
aF-3.2685506911825137
aF-1.8815460812907034
aF-2.7493045782848307
aF-1.6637125984988739
aF2.4855088127202958
aF0.36662106615081475
aF1.5042743160704288
aF3.24653778574686
aF2.4227699818435489
aF0.9985574649780451
aF-0.091037317949259566
aF1.3337834173330416
aF1.1694827298357697
aF-4.9303912034180239
aF5.1925776139371926
aF1.0210023304521645
aF2.2472874985782845
aF2.0412173775312237
aF1.1402243623839221
aF2.9040535946093442
aF-3.7938391974962986
aa(lp83
F1.3029707221562792
aF2.2756819186356188
aF-1.8205099078613036
aF0.079970788153662042
aF0.74972606284350796
aF0.044712406747511729
aF2.7837568297813595
aF-2.6892860912153713
aF0.17598943218711707
aF-2.7834585152816231
aF-4.6384385120557559
aF0.13096690809891143
aF0.84020776961694954
aF0.17605118547257409
aF1.3612240750443085
aF0.68670955892178176
aF2.6038229210761314
aF0.34660972749220864
aF0.055603699739908585
aF0.28796721905802491
aF0.56643618989220268
aF-4.0858527180382804
aF-0.44555682900364674
aF0.70017776462252679
aF1.6948502562125649
aF1.3866767766468979
aF0.079555075276792966
aF0.46603799498533655
aF-4.1842198053800415
aa(lp84
F8.3525456247817491
aF2.6398658860652255
aF0.22363244045904537
aF-0.74135266733616167
aF1.4616358021335645
aF0.55890410937748713
aF2.2185536474244718
aF-1.2639073507682386
aF-2.8846097574347112
aF-1.3813223893052069
aF2.0568187984173902
aF-0.27741724803486012
aF-0.8639754232585195
aF0.92317997164048837
aF1.7107850352049443
aF6.6685634591003389
aF2.720644039025498
aF0.62303065926646473
aF-0.17818346722019129
aF2.3729299982032956
aF-1.3661237228525922
aF-3.8196296549866329
aF5.361444296603266
aF0.84248316285473657
aF2.1312137241120657
aF1.9958756986766375
aF0.50408882754530837
aF2.9466367826662028
aF1.8286408786712571
aa(lp85
F-0.1477102358795728
aF2.3338412457390429
aF0.92171551370070726
aF1.7087599277597987
aF1.2353767601017356
aF1.6593342896906413
aF-0.5966665781509608
aF1.2120767630829334
aF-0.2489839095685987
aF1.8321417539865061
aF0.27647934424090392
aF-2.2584174176560148
aF0.17345779020009788
aF0.46882346945534764
aF0.19305842838417783
aF1.9820782958603362
aF0.97880877977465963
aF-5.2377566773164013
aF2.905024951073091
aF1.3719792357685445
aF0.78972983678149389
aF2.2622454322701375
aF5.3785560465389537
aF1.6215894789559071
aF2.851139441419464
aF1.7178276998737796
aF0.86685035803919208
aF2.1194970783326128
aF1.7706772961655266
aa(lp86
F0.32722526281209469
aF-0.10475961731430172
aF-2.4863752094679281
aF-1.6611657164126623
aF1.2643518601209582
aF2.6078228850110121
aF1.5459020614596657
aF-1.7325836398204353
aF-0.12452780701199316
aF-1.4402220646518817
aF-5.0043990903387652
aF1.0561531619387168
aF-3.3857825250751361
aF0.82786541683656656
aF0.53533054589922102
aF2.0372983234940407
aF1.1498192171270234
aF-5.6587549271323647
aF2.5735080147725617
aF0.94929507930224943
aF-1.1877102369757895
aF-3.990682280911594
aF4.4489242874463466
aF0.63633214544788363
aF1.338806673790403
aF0.42661392231156114
aF0.85463942732307729
aF2.0650703747613885
aF-3.7078402667719423
aaa(lp87
(lp88
F-0.80821321274134428
aF0.31128463340390927
aF0.65005676061559625
aF-0.4995046509443154
aF0.49329454845747106
aF0.1823943114711748
aF0.30305845578735269
aF0.84200018584122882
aF-0.28445922980161581
aF0.095997989706810352
aF0.44252045985700539
aF0.47209162102061553
aF0.7764155690556116
aF0.50014321972232278
aF-0.057048963615104156
aF0.25412203804302702
aF0.54902993537207267
aF0.14355554686568725
aF0.068276920676203473
aF0.35339288727382034
aF0.22228098811998295
aF-0.12926349252360023
aF0.16293622705571961
aF0.28111654807024894
aa(lp89
F-0.13650900012154238
aF0.79041106111331039
aF-0.17874832491232415
aF0.40679412198471621
aF0.19779477037683854
aF0.56251464293734155
aF0.80883955961000176
aF0.52559356365429144
aF-0.66475542324384729
aF0.57276515240936199
aF0.63215836530455261
aF-0.21357098065717392
aF0.61728837192239139
aF0.29851735670029472
aF0.43011714563960179
aF0.67956821646095777
aF0.088499683602220339
aF0.14395436184784688
aF0.098131057174739758
aF-0.20069923498272452
aF0.43231144090502915
aF0.54198523972918411
aF0.77653425941270482
aF0.041668771255401839
aa(lp90
F-0.33163059951858609
aF0.36691052500933108
aF0.08414626501411164
aF0.31212167892879811
aF0.41863349415501178
aF0.76485818897093782
aF0.093599409598424527
aF0.73386101419133198
aF-0.31181947039827007
aF0.25283699531675519
aF0.23623107206382143
aF-0.70840878682325759
aF0.71390244311510009
aF0.02620111207346898
aF0.39172429936837838
aF0.46860465249591982
aF0.43516883817307134
aF0.91728510426463961
aF0.10711892217148922
aF-0.66794679752422748
aF0.04346185377352868
aF0.29749777267985328
aF0.30861089387751484
aF0.1855178359374865
aa(lp91
F-0.83628529789591766
aF0.40522001977500949
aF-0.78744346947282828
aF0.56700025548183741
aF0.42837460623264639
aF0.27471383230660312
aF-0.16135057200942052
aF0.40472802905081007
aF0.24270431753606231
aF0.14058357960241527
aF-0.29364215211002742
aF0.13356250370256326
aF0.052945625736395996
aF0.016784951710510039
aF0.14433885464363533
aF0.36209572111210775
aF0.45766432434555482
aF0.47323868166825861
aF0.34453024261151566
aF-0.47906274243573882
aF0.70041193513510713
aF0.60290907811992478
aF-0.19060835990126448
aF0.4725685663509846
aa(lp92
F-0.71151516018069838
aF0.74303070321803522
aF0.34612642778208841
aF-0.10219342406726746
aF0.58445888086233877
aF0.45578322458405435
aF0.2465722052798012
aF0.08612458023172205
aF-0.61175399280360532
aF0.13840576629547627
aF0.73413443360944908
aF1.1536063729104331
aF0.25404612604180871
aF0.034275927242472311
aF0.046122093358003061
aF0.45852440882269524
aF-0.013437602576487791
aF0.18134820822357145
aF0.10142258937827686
aF0.27983742410492063
aF0.54245951024403238
aF0.96694957586341201
aF0.31089946128285229
aF0.35229128591293735
aa(lp93
F-0.51425912682573482
aF1.0987237322402876
aF-0.32398832788831444
aF-0.56177699493472399
aF0.65824832132571198
aF1.1281362891020261
aF0.83984324656150178
aF0.6790799401391302
aF-0.18354148711932794
aF1.0977180702728921
aF1.053197468712036
aF0.31299693756771124
aF0.95283675837250581
aF0.81539425627122963
aF0.96370183242639484
aF0.14918555989693894
aF1.2189063809989866
aF0.69417858542684097
aF0.58702314829267654
aF0.56306894256385076
aF0.88110576226941817
aF0.8750298760822246
aF0.53153867100155205
aF0.91028675089299393
aa(lp94
F-0.38971822423794084
aF0.29727456289297066
aF0.93611630357229636
aF0.11964179621632691
aF0.60670206924676384
aF0.1232112317504481
aF0.93655045345960375
aF0.39983905471479558
aF-0.038558132308502559
aF0.45696001951058335
aF-0.22048329177840295
aF-0.1868830580568604
aF0.55557927003873575
aF0.70244026342010846
aF0.76512736643935964
aF0.20752147431591145
aF0.44858927537484156
aF0.21870752783849479
aF0.17191685559003525
aF0.40112276296040938
aF0.17301408153634759
aF0.58142771737292365
aF0.63952468151459396
aF0.79403709561466806
aa(lp95
F-0.85360966476437206
aF0.13162914164849765
aF-0.69607803157006665
aF-0.19601625457548566
aF0.2918885888214181
aF0.65553709119110959
aF0.5510521011372167
aF0.73767744700198201
aF-0.34532985377554981
aF0.76623045339947982
aF0.57611200507801041
aF0.37032967546251888
aF0.73370137039547412
aF0.83714354822369597
aF0.10221039149380831
aF0.71989776879125134
aF0.69207722660159487
aF0.56287500607454677
aF0.87254788689505047
aF0.37420748325640318
aF0.42969292686230143
aF0.17692963964781336
aF0.95455507515839733
aF0.32377711372478502
aa(lp96
F-0.19967172232953312
aF-0.38043536270236711
aF0.46273305507415496
aF0.37134943540650672
aF-0.41685255090946188
aF0.16205540273214908
aF0.53676151053847898
aF-0.32930746322551835
aF-0.3398125517329858
aF-0.11708482816570764
aF-0.056785104744354199
aF0.39128180344513669
aF-0.16225567249096837
aF0.40692356294836407
aF-0.16043881406813693
aF0.11517179091366743
aF0.50874619447141078
aF-0.20272615816352624
aF-0.16582857847259688
aF-0.2939254225329625
aF0.20486297069638881
aF-0.24190101292920232
aF-0.49138718828954397
aF-0.41559535218478488
aa(lp97
F-0.86174430269745061
aF0.18476053225991862
aF-0.62215882841269166
aF-0.58690134083548018
aF0.49682426082949616
aF0.070373309399640968
aF0.15231914398525023
aF0.1954855732616205
aF-0.47320147786482358
aF0.66869994130897981
aF0.3911048764457688
aF0.6962354054621388
aF0.20288830995378801
aF0.34498576915477247
aF0.40972780202046866
aF0.15891954092145197
aF0.60162749214745026
aF0.13411939002787412
aF0.44813085707034578
aF0.88434575697161188
aF0.48831772684167607
aF0.7684853932156841
aF0.85054317692994841
aF0.10943985312083264
aa(lp98
F-0.33631782114809217
aF0.66554029102367807
aF-0.81148794057322304
aF-0.91937216842473635
aF0.81940256904818731
aF0.22456122096548439
aF0.67066772416706599
aF0.15543137920093131
aF-0.10209365429877672
aF0.75135887810583435
aF0.56284109390477255
aF0.94071973447157198
aF0.63402550484364806
aF0.71441138192411802
aF0.53962593437802864
aF0.6048094205144342
aF0.93011445850368879
aF0.075671919535967941
aF0.44299466546024396
aF1.0550708222704934
aF0.72427995452443317
aF0.76665556290841941
aF0.35992588044565765
aF0.65989822996031111
aa(lp99
F-0.90210171790440796
aF0.18614163069790812
aF0.01659144081504535
aF-1.3997856641745636
aF0.66780021533124634
aF0.021584462020344662
aF0.33071055235828972
aF0.04887142491643915
aF-0.10512244671518725
aF0.030210991918216488
aF-0.14746130836367013
aF1.1325420605733483
aF-0.064908268217904422
aF0.71324173781973632
aF0.73102108457983472
aF0.70602753429168963
aF0.14916250849672849
aF0.14943527306014465
aF0.39342366514403726
aF1.6033475777656487
aF0.031002641649637799
aF0.73727930413622089
aF0.76436975943813845
aF0.22742683924297369
aa(lp100
F-0.20082293675770713
aF0.37455882787029215
aF-0.37062829523815372
aF0.14927539011923349
aF-0.025871548964308492
aF0.45004171147638861
aF-0.034321176501695458
aF0.60573918113733782
aF0.075325199171070584
aF0.29296876645505748
aF0.70866854511214117
aF-0.046512981888876079
aF0.62300667305220403
aF0.46599811128765223
aF0.063860581846975267
aF0.23583256622513454
aF0.40667179928521019
aF0.30545159406192074
aF0.67762335340348068
aF-0.54649965940485079
aF0.69724678166272536
aF-0.58239762341203793
aF0.20198067382468635
aF0.051032136803886213
aa(lp101
F0.03438947523434345
aF0.60602472432310306
aF0.48736879848091552
aF-0.61171404014664543
aF0.36318009671618812
aF0.73138793710670058
aF0.1912455221509318
aF0.15474279641382283
aF-0.088292327283721994
aF0.18444309371535569
aF0.50138664072267847
aF1.2105999546711401
aF0.82884638720502968
aF0.22046361999908914
aF0.76040764006479566
aF0.75400057467895898
aF1.0386524774042976
aF0.99352749264586881
aF0.59332445751250928
aF0.84237176513794454
aF0.87989213012135825
aF0.80528396759397436
aF0.6053064686526779
aF0.55356526472750256
aa(lp102
F-0.18200074379710945
aF0.14672434267634879
aF0.47300665427144939
aF-0.53159796816864702
aF0.72447957346973335
aF0.096357972813299567
aF0.52518207678557316
aF0.68795391207040935
aF0.059490467655460497
aF0.71756940567967387
aF0.52493670310660845
aF-0.26823497284961439
aF-0.05855764956928286
aF0.26318112940115884
aF-0.073944125491343257
aF-0.03224611630467078
aF0.76887789074509438
aF0.34557423655392433
aF0.3314529692220099
aF0.12374054362101716
aF-0.014438077544197176
aF-0.32000329678419254
aF-0.039689994619587388
aF0.14515494575849383
aa(lp103
F-0.13250150353926127
aF0.50450030876593788
aF1.5937245538925802
aF-0.10232781236413788
aF0.45684225709498011
aF0.21866956913907531
aF0.2946133628906068
aF0.17657267965876103
aF0.13826776862936316
aF0.14534359178293002
aF0.13429904568757262
aF0.65594573657762412
aF0.49316534760116687
aF0.55520150834707738
aF0.36526475953113591
aF0.14389289070475811
aF0.16001570110912691
aF0.14575559123699439
aF-0.031182939823529491
aF1.0617686754354934
aF0.92608509734080069
aF0.56957576065725968
aF0.27714066735972309
aF0.65890938891527828
aa(lp104
F-0.0033112132804639454
aF0.064160943434188766
aF1.4450552101912901
aF0.35142836940647232
aF0.007437162041883153
aF-0.21621795669054672
aF0.020705630079445918
aF0.15209201746787071
aF0.14314532071543007
aF0.49473890176012658
aF-0.26300117428986858
aF-0.49553759008434023
aF-0.25881691869132173
aF0.36666145524988752
aF0.38372725056800089
aF0.49489144678352703
aF0.15497316334197989
aF0.68423932309658497
aF0.24008736264410302
aF-0.47765964162658214
aF-0.0033227742387935792
aF-0.12460619261174861
aF0.29290251531711137
aF0.49316555055276023
aa(lp105
F-0.061227853532974129
aF0.43953671981854436
aF-0.037678557379845684
aF0.53486315254982886
aF0.56616244176441066
aF0.5709613149988858
aF-0.086936072721415611
aF-0.25706284189458967
aF-0.45879647143759844
aF0.49450528059957433
aF-0.2573250577307144
aF-0.17990295992590669
aF0.10741116860489952
aF-0.03501525054867953
aF-0.23183136118790051
aF-0.24403957954061228
aF-0.19711281156510863
aF0.28888358499130729
aF0.59200580273650849
aF-0.50353634704518924
aF0.012352763245948799
aF-0.46113651763952157
aF0.44992754196734647
aF0.47437437577054298
aa(lp106
F-1.0961225206531391
aF0.68163715444216877
aF0.11649358518299539
aF-0.92870617963106661
aF0.84781074177374716
aF0.90297503717536176
aF0.4290643633284526
aF0.70896526883275124
aF-0.8389331413923613
aF0.40980734663147939
aF1.0776037631006015
aF0.84935903480389863
aF1.0095137525856444
aF0.97746324141280705
aF0.97713706176592496
aF0.88364638745195589
aF0.54040529427929529
aF0.88424983285205305
aF1.1668856213198922
aF0.6698202080322877
aF0.98830722184841346
aF0.40553015566084061
aF0.86413581190866828
aF0.74158375505930585
aa(lp107
F-0.46926685056807055
aF1.1166439960757686
aF-0.29718046356262495
aF-1.1092402074124799
aF1.0140483161319569
aF0.78851932745752507
aF0.80715848195052731
aF0.95613265079224774
aF-0.54868594778251911
aF1.0541121227343659
aF0.74658442596165153
aF0.99476949327770359
aF0.67934453577501031
aF0.33786965653004136
aF0.37565635363997557
aF0.59601548063470333
aF0.33056663486898547
aF1.1558559350160797
aF0.91801447038226647
aF0.54067675353460509
aF0.72472736918146263
aF0.89711868122685434
aF1.1483452527091444
aF0.29617210876273775
aa(lp108
F-0.56813039949161603
aF0.23616524767663463
aF-0.60904141018218927
aF0.032615708932159003
aF-0.24353402536753094
aF0.14546207778187895
aF0.39687291723254237
aF0.60273378824020796
aF-0.72150406826307023
aF0.077250364778212954
aF0.52181786994359114
aF-0.15649227957651399
aF0.19606817428793169
aF0.3202596118285852
aF0.58267756330363074
aF0.33182078914588337
aF0.42057763287678812
aF-0.29708801136484153
aF0.56210551011915999
aF0.3133488258556385
aF0.35390007059587203
aF0.12124731386845472
aF0.3438106206215249
aF-0.25703338256157832
aa(lp109
F-0.8191742230555904
aF0.72231630607739272
aF-0.28401055650089629
aF-0.52619933083786175
aF0.41290891939257046
aF0.38586912896176656
aF0.9818813551080221
aF0.11119996958184988
aF-0.68501764799971543
aF0.23821799437053076
aF0.22546823359455762
aF0.64783935282906813
aF0.94837143926574696
aF0.43409348387990043
aF0.7276485028588715
aF0.23499142012191765
aF0.59577426917346832
aF0.6587150456894445
aF0.13515462770683473
aF0.51618693429134621
aF0.74445877935296201
aF0.23782039883571093
aF0.54737162908806547
aF0.53063159878546207
aa(lp110
F-0.62750833137183315
aF0.10664566431828125
aF-0.50667990867839463
aF-1.4218445251818268
aF0.64108251336961952
aF0.92672862950251589
aF0.20985187968462335
aF0.63926850556141934
aF-0.064512095520295243
aF0.92679946366266142
aF0.65492221954055174
aF0.3672858554902394
aF0.23907883676073463
aF0.24954711055620693
aF0.43204016671489254
aF0.95274669591895589
aF0.2158418048300465
aF0.3693706982026605
aF0.18703929244027737
aF0.50403311914999716
aF0.36343415816503238
aF1.4108297311487432
aF0.76235539385686646
aF0.77334540626175552
aa(lp111
F-0.5588711630127462
aF0.50483647613207883
aF0.2192245521903044
aF0.057390699266973294
aF0.28032627335254906
aF0.35809927810868919
aF0.6038722923029759
aF-0.22338777574773303
aF0.14704129894039539
aF0.14449840200792696
aF0.047590059817774602
aF0.21640200467366155
aF0.50384423444529525
aF0.54076850125410114
aF0.094573935982889615
aF-0.089137894121716549
aF0.60407347513124732
aF-0.10129510342250103
aF0.60038228012049255
aF0.046236610353327219
aF-0.069082873348583096
aF0.34367049996517046
aF0.065185476302399611
aF-0.015351119063098623
aa(lp112
F0.21886698359521028
aF0.23894964537060001
aF1.0326065021944166
aF-0.081573933938875506
aF0.62575681080168777
aF0.079182226032290373
aF0.040219555591185924
aF0.19627610688001065
aF-0.63759531186615659
aF0.54822683352816304
aF0.61181794229835718
aF0.3019664279953323
aF0.027332362358572691
aF0.044679859652192892
aF0.44710962924678388
aF0.60322410117570668
aF0.68828885132061479
aF0.77620372191651854
aF0.43723010836791126
aF-0.20163268676317575
aF0.7866745733670254
aF0.17396052115120811
aF0.37227621141887446
aF0.62404884253483095
aa(lp113
F-0.31124350986052424
aF0.65675978154210857
aF0.018195108141791538
aF0.39517008096936646
aF0.15740078821421835
aF0.10396645246381526
aF0.25467297102761705
aF0.15188935506880571
aF-0.64073143951710965
aF0.659569918331956
aF0.44926527382388548
aF-0.33761761473229818
aF0.79605907458212655
aF0.66702319057437232
aF0.86149100062707584
aF0.1675168204830822
aF0.26792412727417153
aF0.24113737533714727
aF0.34746350658282438
aF-0.29450564407172541
aF0.61076026011279194
aF-0.06086092055047386
aF0.82919020198818461
aF0.26424891268168405
aa(lp114
F-1.0891474371250962
aF0.44816716749222629
aF0.20085665240845108
aF-1.1919908681349023
aF0.86657925047586981
aF1.0687235764068015
aF0.9942186435348167
aF0.43064430059355813
aF-0.21527267460687316
aF0.31240068574859942
aF0.60636708401568296
aF0.86660134737325933
aF0.7953854890313754
aF0.6559541227320097
aF0.42157124706580074
aF0.58528940093293214
aF0.94017387412291509
aF0.67237552686184943
aF0.9809162518076725
aF0.57362722966395707
aF0.64895043689337939
aF0.49025137206951463
aF0.24185256822244039
aF0.46302784986096096
aa(lp115
F-0.63078251992782808
aF0.46413945194492912
aF0.26059210240798175
aF-0.70281697652206321
aF0.32538742952777594
aF1.0449920629498715
aF0.94181936432424351
aF1.0258865790831224
aF-0.63152049847882508
aF1.1172091107171429
aF0.5888298867424242
aF0.5322197354362912
aF0.5541010446403547
aF0.33197821596053884
aF0.83316128797899336
aF1.1252745957291688
aF0.68354848329384177
aF0.9490193512639189
aF0.48061829427788499
aF0.37538586663506374
aF0.77424471738062717
aF0.66838916901511336
aF0.70311592121940769
aF1.1419526789184755
aa(lp116
F-1.0171931000628642
aF0.86590928154004221
aF-0.56219975763426844
aF-1.1635421543910669
aF0.73847687795839556
aF0.96430210503746849
aF1.0104955227806567
aF0.91558083741903051
aF-0.35472966553887125
aF0.72635502212379577
aF0.045030495212259207
aF0.39185719626711957
aF0.42959319709327409
aF0.71767078529521466
aF0.5205715668838965
aF0.94669641145434058
aF0.36000359610782712
aF0.95389675609367175
aF0.2990146521538341
aF0.75602279800609085
aF1.0970113675230588
aF0.71852268208583725
aF0.74386634616907488
aF0.59780826902357531
aaa(lp117
(lp118
F0.24552064776967822
aF-0.27138217765791689
aF-0.22164700084348835
aF-0.44501727807225538
aF-0.62927956303016686
aF0.15628152770981363
aF0.49296691691976974
aF0.10981153868818494
aF-0.18016747123154683
aF0.21265410135912291
aF-0.40663590268532263
aF-0.41810103937966614
aF-0.082143152679763895
aF0.40855917032175848
aF0.1770528505111624
aF0.11192922100686575
aF0.26991214671441693
aF-0.0094546994069902596
aF-0.12223306677096639
aa(lp119
F-0.55996934505988294
aF-0.15781716826320868
aF-0.44583681939044928
aF0.50563725926748826
aF0.056427501115632557
aF-0.61678413128554843
aF0.75539193958496931
aF-0.58358786748815372
aF0.52485183749066477
aF-0.88685943303912596
aF0.82519923553068508
aF-0.75647898631507993
aF0.32814941247133872
aF0.43847286583488182
aF-0.29288598082512762
aF-0.33869555744850616
aF0.093955027911021477
aF0.38936303699209046
aF-0.79796810394853634
aa(lp120
F-0.29764205318621562
aF0.43904265139898646
aF0.53588830655008224
aF0.29768608029920168
aF-0.092362151454389613
aF-0.22376713707044582
aF0.50008990182707325
aF-0.019705303180345739
aF0.12235242173635112
aF-0.30982354811976726
aF0.37840310814817757
aF-0.42315270706899916
aF0.46282545118707025
aF-0.24472449146447778
aF-0.011879831329230997
aF-0.30790527945627622
aF-0.02178719079339286
aF0.26820785879709158
aF0.21354071295242508
aa(lp121
F-0.051198281171208018
aF0.15305265229270032
aF0.088511099252561939
aF-0.39225881238620586
aF0.0018210636835592528
aF-0.41280780946487639
aF-0.30473555703214328
aF0.35030894291520426
aF-0.0028800105421120247
aF0.56200552235464896
aF-0.091532016440753636
aF-0.023187765723393223
aF-0.16197483611260158
aF-0.7454872411047595
aF0.39307611912010543
aF-0.33459516710383003
aF-0.42539946070913537
aF0.079767524707478207
aF0.22888814152664572
aa(lp122
F-0.60669446525392035
aF-0.47351991959269785
aF-0.27509390817822915
aF0.88076887450551566
aF0.139433689076052
aF-0.51750502106725949
aF0.87450299939989284
aF0.067484272661195346
aF0.64905949993191392
aF-0.173225234976189
aF0.12123785164689463
aF-0.37537549717560437
aF0.73622966182650063
aF0.54139909860657986
aF-0.60476387998307346
aF-0.37768012822469588
aF0.58220790827721525
aF0.4569239563286196
aF-0.56152876756314896
aa(lp123
F-0.79001928628135065
aF-0.30823844680303242
aF0.12512344536961781
aF0.2529012901365752
aF0.55749599915691361
aF-0.45567365798260467
aF0.045825796299601387
aF0.26427111826326943
aF0.50677993158496248
aF-0.030321464440457406
aF0.81340829886314403
aF-0.72811159384043556
aF-0.0019885620642858099
aF0.31068569340920271
aF-0.64612894217227745
aF0.14284063055060928
aF0.079740578729498995
aF0.67171237078394297
aF-0.46634404609630914
aa(lp124
F-0.63734196740628779
aF-0.74202197224566735
aF-0.17224713049659154
aF0.21770277897959056
aF0.62283331678517362
aF-0.39902575151466624
aF0.14576730952132458
aF-0.57339659653003794
aF0.20272812813489
aF-0.3938976758474998
aF0.59031023702461594
aF-0.23016363854540867
aF0.901329527320341
aF0.21133108884621107
aF-0.75840303457378422
aF-0.80105090935944734
aF0.1844853645886077
aF0.77016088223845669
aF-0.57359214372396394
aa(lp125
F-0.48697169007221286
aF-0.14722314667683192
aF-0.04189596051652722
aF0.077843461651566331
aF0.05022666910594617
aF-0.17058026168633311
aF0.042248799756322127
aF-0.056258600593831129
aF0.2428908285942524
aF-0.19321524249630265
aF0.57794184982812091
aF0.066094408730297829
aF0.84881481551085536
aF0.027960620065128304
aF-0.79663748803547141
aF-0.72781097150114293
aF0.59283410577848461
aF0.18696429511418214
aF-0.59128193314144295
aa(lp126
F0.30873539979522208
aF0.35465388137149301
aF-0.13146518920320183
aF0.084514443748976556
aF0.02444467714212983
aF-0.034518697762974317
aF0.24402576921889116
aF0.47495090678507645
aF-0.31064294241375767
aF0.1819234224413403
aF0.20126231892426108
aF-0.17303942768160605
aF0.094664490531664272
aF-0.29068668804801867
aF-0.17358308331470057
aF-0.053657846798707269
aF-0.10699508966675918
aF0.0047750833947132571
aF0.019769149596242801
aa(lp127
F-0.36034940756284933
aF-0.31712968338242564
aF-0.70235913419088614
aF0.41804655598888718
aF0.48922641399709732
aF-0.5368242943533158
aF0.17941596355022274
aF0.25681933441454219
aF0.53240130438381916
aF-0.50883209514116834
aF0.85148407099427337
aF-0.051191091017003622
aF0.71082659015694039
aF0.22707159459760648
aF-0.3326134723793267
aF-0.53988559584869988
aF0.69161154869090069
aF0.26812704887918304
aF-0.68470623014097598
aa(lp128
F-0.33868803021321503
aF0.10569177853773021
aF-0.48560655416563592
aF0.18650838294144984
aF0.21845524167129807
aF0.039892793133577908
aF0.59146003077323073
aF-0.69038951258565417
aF0.45432128977441294
aF-0.55755173073876019
aF0.3803781980370648
aF-0.52401766421981066
aF0.32845726348170023
aF0.095139409690988649
aF0.026643760326979463
aF-0.42019815716067005
aF0.31954562818693816
aF0.41836607209492183
aF-0.23858584673994482
aa(lp129
F0.35103816153141632
aF-0.13667735378176912
aF0.11707578916112518
aF0.50354874168560437
aF0.58218138319443014
aF0.070323833400341512
aF0.33454989847857797
aF-0.66854932163131731
aF0.34762282089759844
aF-0.2243554282290931
aF-0.099992507571336778
aF-0.25274993263711176
aF-0.070830178093257784
aF-0.085343351541668333
aF-0.58148666787072967
aF-0.99059156106623414
aF0.45824027709230652
aF0.0787111393266757
aF0.34242383326967274
aa(lp130
F-0.16335004839682341
aF-0.60993946289232226
aF0.041705479317346944
aF0.28119808412274178
aF0.24506001206933939
aF-0.70813421613696692
aF0.55283198699764613
aF-0.080111217188383987
aF0.71081405170188083
aF-0.5526841940557502
aF0.57959966203225111
aF-0.87525262834436068
aF0.58423362293465519
aF0.66664863078455727
aF0.16767752882533662
aF-0.64684167729331599
aF0.57741201619906779
aF0.23657970944285683
aF-0.36160348458224806
aa(lp131
F-0.16893594071718451
aF-0.49938717986646103
aF-0.54383500266497853
aF0.85316937667897219
aF0.23308419181670026
aF-0.55043913543739298
aF-0.013197544691791395
aF-0.41015894070633968
aF0.11884475067816951
aF-0.60076781305545235
aF-0.013599968872602668
aF-0.52997974979631635
aF0.48369732463502951
aF0.59083007794095654
aF-0.19263100764436919
aF-0.083034972830280551
aF0.68258963654674798
aF0.55073228645535655
aF-0.56840811885780207
aa(lp132
F-0.62602982598240908
aF-0.73515878026346204
aF0.14633655421515285
aF0.54400599569315067
aF0.37678755918989776
aF-0.61259959530357455
aF0.589848134438272
aF-0.23138688123343307
aF0.44547340091952142
aF-0.05982214370912653
aF0.10587279675396942
aF-0.63168834903983573
aF0.71391466739278209
aF0.73412542148595894
aF-0.53761696274799886
aF-0.12120505808237361
aF0.0086894755282086161
aF-0.14784914245431513
aF0.049186359586065383
aa(lp133
F-0.70595317617228182
aF-0.72392588283135639
aF0.0085007666470423154
aF0.2261278645044279
aF0.53930567566030474
aF0.13564454950660071
aF0.76449537386403266
aF-0.26374243112892837
aF-0.11366343448875789
aF-0.73199657862512202
aF0.29073236470470998
aF-0.14138469854071067
aF0.23447751523811639
aF0.6927571768197911
aF-0.57704605409825982
aF-0.77153813469062815
aF0.22081966181837173
aF0.17020361475892454
aF0.0052275112953598483
aa(lp134
F0.075655481158158205
aF0.12293808799391276
aF0.00013828999609045468
aF0.75503149228761279
aF0.23351439755506825
aF-0.21267466348753566
aF0.74546291548830157
aF-0.45926878257897918
aF0.17606832835404543
aF-0.07925972619174157
aF0.63716007083139703
aF-0.66688850702446401
aF-0.00046520222189986687
aF0.60846521542163123
aF0.030713952662733444
aF-0.028091872731269531
aF0.30133169111478691
aF0.76879429469458771
aF-0.33093564673260628
aa(lp135
F-0.017931429922552287
aF-0.31469397548870132
aF-0.28884977366877251
aF0.77230847848038575
aF-0.071341273538627001
aF-0.51269072479634537
aF0.44843987576236177
aF-0.60107202671669857
aF0.65740128755934579
aF-0.49435252712819244
aF0.035859099973585759
aF-0.29698567600079373
aF0.40776905824617854
aF0.20080423424931035
aF-0.017362930623566659
aF-0.076190691989786632
aF0.39531847361338185
aF0.23697679662669022
aF-0.67342505746040637
aa(lp136
F0.061346386619615036
aF0.032597470987326356
aF-0.53166195851031528
aF-0.11168252426065006
aF0.58352446330960894
aF-0.14416669420094147
aF0.079672067766217547
aF-0.025009248789795876
aF0.71821349860827277
aF-0.65801614703254563
aF0.62959157651145559
aF-0.46845544873512196
aF0.37167517638249375
aF-0.15772293011330957
aF-0.24473837441775217
aF-0.077055758337263316
aF0.69663714260755516
aF0.6219005978703056
aF-0.39453804390084196
aa(lp137
F-0.01362431416993868
aF-0.17978160405151317
aF-0.3719307322118463
aF0.72156065315507623
aF0.26670450992121936
aF-0.33451824733319829
aF0.42211421941517213
aF-0.57837883626752729
aF0.30613159567579595
aF-0.65324574842095973
aF0.017029636519443971
aF-0.26661712876427462
aF-0.36459460581620839
aF0.21250990180040585
aF-0.9041953791879036
aF-0.58476162136472432
aF0.62721148365453683
aF-0.022511430120037458
aF-0.25144058489315052
aa(lp138
F-0.55631772874692076
aF-0.77640831946781586
aF-0.26401192295820436
aF-0.056687489451333575
aF0.59315043791346311
aF-0.26937480947382153
aF0.10727449697251726
aF0.029763723351668728
aF0.33218823824309113
aF-0.11780214689404969
aF0.4636524795197246
aF-0.72721897897988208
aF0.7391723108563254
aF0.56597119590422951
aF-0.71665684223297177
aF-0.48593001794956969
aF0.32349207753564574
aF0.18909619749169651
aF0.11475581410990025
aa(lp139
F-0.41896473836019149
aF-0.4404283792064646
aF-0.44395110663205262
aF0.21944582337276022
aF0.80100532749701014
aF0.13821488101291932
aF0.51629818944982819
aF-0.0029452379879762632
aF-0.20787263996674682
aF-0.80124974901474377
aF-0.072545196075040924
aF-0.30880743581452474
aF-0.087889240144333469
aF0.40977006209075345
aF-0.79621908726611845
aF-0.30148457995853023
aF0.8336130108412374
aF0.58132565082056453
aF0.20459898261199927
aa(lp140
F0.083451100790395347
aF-0.50681175941886814
aF-0.62902539898689747
aF0.24340573489558145
aF0.42146071547780872
aF-0.80561116992217319
aF0.68640288414623996
aF-0.37782049145638924
aF0.51936046973503081
aF-0.11347449263074399
aF0.24109691120344928
aF-0.30638795699568255
aF0.03701592320529401
aF0.21349895219088322
aF-0.059558383094098326
aF-0.28621770067039093
aF0.10120662829001952
aF0.81201534318976942
aF-0.62166215408071368
aa(lp141
F-0.3228990004741038
aF-0.26528267921249654
aF-0.71837154792337932
aF0.7168855517869277
aF0.67278543690548187
aF-0.75826775013523784
aF0.66350793441483935
aF-0.20530834285962199
aF0.41832760212847508
aF-0.67198212466763441
aF0.61563466934464461
aF-0.29831896650544515
aF0.56920254352459698
aF0.16947423884942858
aF-0.20321832075043711
aF-0.25353958068860227
aF0.2668966610776034
aF0.82420506103629021
aF-0.39166512710263307
aaa(lp142
(lp143
F0.38186243645811208
aF0.46267072576118756
aF-0.31205230655198812
aF-0.24523789204521054
aF0.24960284599563973
aF-0.31837310467489427
aF0.24872492531060481
aF0.071268342614153615
aF0.026175804403268561
aF0.014331819549663453
aF-0.45833341080877937
aF-0.35629907406025058
aF0.32906887456301592
aF0.058503957392212265
aa(lp144
F0.02711119684285224
aF0.31523663917314637
aF0.33366162817878087
aF-0.24908844675405015
aF-0.1991615978817752
aF-0.32542606432084753
aF-0.013278111726091796
aF-0.42786231360843946
aF0.16508452716194169
aF-0.085343768468290365
aF0.47210483212287008
aF0.066707002626185452
aF0.17331582735440065
aF-0.4809031666847251
aa(lp145
F0.24816722503221425
aF0.22643699188996022
aF-0.062434133215289289
aF-0.50786113545517242
aF-0.023825711730092614
aF0.23946939476609647
aF0.11026044137473749
aF0.13798554265216273
aF-0.3332800366809705
aF0.39096431238780538
aF0.31048358352199801
aF0.51444760985059801
aF0.40153636264719872
aF-0.13244699353343414
aa(lp146
F0.67179179988423943
aF0.34368000429739937
aF0.27396204841693617
aF-0.90974137195013516
aF1.4742165348468734
aF1.1578577263516019
aF-0.64236924044993682
aF0.1941053367337866
aF-0.35400229654342674
aF0.059572623448735776
aF0.25342475509152301
aF0.24359011309017431
aF0.63854636772278994
aF-0.53400505348999083
aa(lp147
F-0.056715857872972945
aF0.79826035433649944
aF0.060197487797670646
aF-0.44633472940736196
aF1.1113928861043398
aF1.1269449887964957
aF-0.066401736130045561
aF0.18523488933455012
aF-0.1400157114144466
aF-0.1367675630596446
aF0.3713878973803405
aF0.10083790552810185
aF0.27774451904122444
aF0.26750446554904816
aa(lp148
F0.27521038678213033
aF-0.10285740348775632
aF0.2392374538907942
aF-0.080656323258199922
aF-0.25964647034940624
aF-0.48568299302109752
aF-0.029515358596630122
aF-0.095785866820416482
aF0.39208198354464385
aF0.26999820756374299
aF0.078318221513452579
aF0.017593585237058083
aF-0.083816355170979837
aF-0.47814128381057708
aa(lp149
F-0.8520546537993634
aF0.80490142260662922
aF0.49130071987998919
aF-1.5635959415897536
aF0.28669731603926529
aF-0.019167461403800795
aF-1.3721361657090867
aF-0.91193245030890757
aF-0.39099882625689314
aF-0.75470000001417414
aF-0.609046701180609
aF1.2210092490458555
aF0.73069867826315171
aF-1.2603726271418492
aa(lp150
F-0.80931269058146116
aF-0.46789617293469843
aF0.440658069498576
aF-1.0113005089875151
aF-0.35509901903789381
aF0.58867615944839446
aF-0.55155736525997023
aF0.18443565402383119
aF-0.53444185275394351
aF-0.7767814427357872
aF-0.20477260059692734
aF0.72320620800002855
aF0.58295542644061493
aF-0.85956645833663969
aa(lp151
F-0.90254664912548288
aF0.29122161079617498
aF1.1728733082894049
aF-1.1550560507513623
aF-0.2925300668914329
aF0.27792284293714387
aF-1.2487158178985773
aF-1.3048923433356574
aF-0.90642893362815957
aF-0.50914153390832284
aF-0.33247594924756679
aF1.1152486098341192
aF1.091776166466502
aF-0.75645753710806485
aa(lp152
F-0.89544891859364584
aF-0.94434103127774405
aF0.60333839059781691
aF0.1772075640096567
aF-0.58884848503314691
aF0.67399995418108027
aF-0.60881188301460742
aF-0.076968234992563556
aF-0.77733017200076571
aF-0.66231618801880376
aF-0.52013168281087074
aF0.46071726272696217
aF0.59063655612506727
aF-0.8553146659992088
aa(lp153
F0.20799115135214782
aF-0.3269333229005712
aF0.30528229039057209
aF-0.64192636759629507
aF0.50992990776904978
aF1.5061092187507159
aF-0.57075164172552384
aF0.50686419741786481
aF-0.44648305866699789
aF-0.24804710325051976
aF-0.31133798697674986
aF0.19180820069599563
aF0.46449547339736175
aF-0.33772218596406894
aa(lp154
F0.058533732180022627
aF-0.089290809921048223
aF0.46470217213639003
aF0.32762986387489818
aF0.46494589823050775
aF-0.45633854456509421
aF0.15386919270375737
aF-0.092966847621457682
aF0.3236069726454745
aF-0.45065535271428531
aF0.34743220938753633
aF0.26925986198248925
aF0.1815622861269455
aF-0.23068960367431282
aa(lp155
F-1.5320032884629546
aF0.61935860387658126
aF1.1420672724383159
aF-1.1185620462070645
aF-0.38593812609014239
aF0.26617367650245649
aF-1.5952989390979853
aF-1.0640373447339304
aF-0.57942714894075742
aF-0.80091791696993819
aF-0.65481218496675142
aF1.0994408314811583
aF1.0484798706768099
aF-0.81918746002725162
aa(lp156
F0.5685112210268205
aF-0.41016050775200674
aF0.18557619223433344
aF-0.99997636039493121
aF-0.085120056606372174
aF0.64563718695344585
aF-0.34373384224301962
aF0.057567845212268771
aF-0.40307173677759911
aF-0.2234676903707255
aF-0.81842433989064423
aF0.52115288558953665
aF0.38516716590348343
aF-0.65491464055063497
aa(lp157
F-0.35157936508857668
aF-0.31874385904276975
aF0.48270461130048548
aF0.063458653609635568
aF-0.83715160914723374
aF0.62248399659515419
aF-0.55045887475502975
aF0.41348169330300766
aF-0.28315551894170404
aF-0.43648520981339767
aF-0.35299018463224674
aF0.34195845260129193
aF0.43641824941891083
aF-0.83537362750598132
aa(lp158
F-0.5575407448157238
aF-0.49696328371012594
aF0.4216247976958698
aF-0.35428066635471145
aF-0.023800674044490117
aF0.13827053984581886
aF-0.72477316820748938
aF0.41068680812633862
aF-0.37708603305697208
aF-0.87510978281542606
aF-1.0882107296874779
aF0.78726381101373177
aF0.37755733054255769
aF-0.66351973531279163
aa(lp159
F0.34240001385463148
aF1.438263894003889
aF0.20745064339446398
aF0.10515693922572764
aF1.4229954628950474
aF1.0793214745046069
aF-0.40839868198495916
aF-0.06892433446001181
aF-0.06063364341242402
aF0.56202199970254196
aF-0.072970114138330683
aF0.10971686066259276
aF0.51254698119879316
aF0.014533660358976738
aa(lp160
F-1.0811092710898995
aF0.78394102310445835
aF0.81122524931683337
aF-1.6565421006132572
aF0.26426935873868845
aF0.34376872394642705
aF-1.681487906723286
aF-1.2589330063113759
aF-0.53858503375549016
aF-0.67706466432755075
aF-0.5481051409849409
aF0.57828739580725863
aF1.1045187183680754
aF-0.81804863404627426
aa(lp161
F-0.25792586352703722
aF-0.09024959785795246
aF0.37205394099395417
aF-0.47668065038599844
aF-0.10084050714351125
aF-0.096538613072526286
aF-0.47005176203979399
aF-0.03398305182528303
aF0.24014755870198062
aF0.18483908519533776
aF-0.39240233076467029
aF-0.14766937089913026
aF-0.27502606428288784
aF-0.0737675144734352
aaa(lp162
(lp163
F-0.97453997906521583
aF-0.84933052682229604
aF-0.33356118225050979
aF-0.1059702199356856
aF-0.23976909473771138
aF-1.051585555537687
aF-0.6493858538781444
aF-0.18883203306607618
aF-0.26701059466136462
aa(lp164
F-0.62520278594524348
aF-0.59125228040764877
aF0.13969089588375627
aF0.079579659908179404
aF-0.71802738399240329
aF0.12612396881615073
aF-0.44724807125366439
aF-0.40556379295781736
aF-0.13032186009895277
aa(lp165
F-1.4863684284773191
aF-0.56978305988642286
aF-0.49717463560243369
aF-0.94929500767480524
aF-0.30666447939850383
aF-0.98256216399498564
aF-1.519020982705044
aF-1.0588080909687032
aF-0.3493341135985823
aa(lp166
F-0.20576495455925334
aF0.024628031577787608
aF0.51795444889450282
aF-1.1632084095894744
aF0.072150579551244154
aF-0.11121009017400726
aF-0.46532647542763778
aF-0.22235316645969844
aF0.1117639674902822
aa(lp167
F-0.6849021230692165
aF-0.50388448558826482
aF-0.5742429587717397
aF0.056898361405276675
aF-0.78084559735565584
aF-0.041626170953972801
aF-0.51057419694103123
aF-0.63283299891846523
aF-0.044351452757853127
aa(lp168
F-1.3781099264793526
aF-0.63335168450639323
aF-0.12167596766732992
aF-0.88093495584044135
aF-1.4614049699483547
aF-0.65055247134264671
aF-1.2296670425446108
aF-0.15147003385062008
aF-0.33378017638905721
aa(lp169
F0.41271315590875673
aF-0.40674231463547778
aF0.38252506034293382
aF-0.38494072475498003
aF0.35594518948915804
aF0.27080827903308163
aF0.058516303100336453
aF-0.40812002320275664
aF-0.32599950472769035
aa(lp170
F-0.50172233604044081
aF-0.6283357820654929
aF-0.05791555496416368
aF-0.315264323126069
aF-0.36984417110167056
aF-0.13588365372984862
aF-0.67041500385929187
aF-0.15365971869322795
aF-0.36864689526413397
aa(lp171
F0.0048879343229492498
aF-0.048598588231993464
aF0.12096414757246474
aF-0.025784830356845329
aF0.1375765269120009
aF-0.34642333665958419
aF-0.14821959537353779
aF0.20808242344261682
aF-0.16945761730890188
aa(lp172
F-0.29937026862852151
aF-0.26794696728814305
aF-0.10623819033462421
aF-0.17448361224747233
aF0.058116200166251387
aF-0.22153820900563531
aF-0.70372431007400349
aF-0.32262739844629429
aF-0.29535360493118074
aa(lp173
F-0.98373165082268588
aF-0.41210941981003352
aF-0.82230605634051179
aF0.34641289427076466
aF-0.58721355879204107
aF-0.19597703931920643
aF-0.29210627775335485
aF-0.88547598976839192
aF-0.67003966708649298
aa(lp174
F-2.0162162956929528
aF-0.51183699440289954
aF-0.81692294823933043
aF-1.396978353142893
aF-0.3814210055058278
aF-0.83793138148220225
aF-1.7285014970802488
aF-0.75526958159983348
aF-0.70028889510195924
aa(lp175
F-1.9829420967226887
aF-0.9935692068278994
aF-0.99400165172629729
aF-0.70069212334386977
aF-0.33058266175819218
aF-0.74542151254014677
aF-1.9941441307719314
aF-0.57731612609413219
aF-0.70354832540302981
aa(lp176
F-0.0017184051672643852
aF-0.11121867631557923
aF-0.04038627004587661
aF-0.14113245739033173
aF-0.058379327165453417
aF-0.094648603390974181
aF-0.48949265916826012
aF-0.062327107884516064
aF-0.063570706053646481
aaa(lp177
(lp178
F0.059994793522261031
aF0.30947064885537917
aF-0.58079312334405975
aF0.051211602792498701
aF0.23097859586196326
aa(lp179
F-0.39450785535496313
aF-0.71008987812077595
aF-0.22321297468421178
aF-0.1353887939710445
aF-1.5517397083737254
aa(lp180
F-0.32706418940767124
aF-0.48631486792520234
aF-0.18260150275374534
aF-0.10839781193443794
aF-1.7779567245200913
aa(lp181
F-0.51493557647978527
aF-0.95076652099090864
aF-0.33356501375701852
aF-0.18334324403617949
aF-2.4282767274623365
aa(lp182
F-0.045520828669322819
aF0.052891324053895468
aF0.069003449410567338
aF0.023512652573609898
aF0.17232356940995658
aa(lp183
F-0.38908670177080845
aF-0.54835766567286348
aF-0.19747163218702113
aF-0.1595303020290334
aF-0.69547994882138031
aa(lp184
F0.14152857169062924
aF0.0085481300522469283
aF0.2654851820637445
aF-0.50145674728858292
aF0.13751504879121776
aa(lp185
F-0.31040841598065044
aF-0.52836259221078608
aF-0.15745194722207892
aF-0.115703909263616
aF-0.85040645746230059
aa(lp186
F-0.2238438694781672
aF-0.30939861052752859
aF-0.10339432887924194
aF-0.074174956734848571
aF-0.8999145095411718
aaaa(lp187
(lp188
F8.441023919572757
aF68.358237500505766
aF19.813041734656046
aF63.489939011554682
aF13.901840746302184
aF-7.9561740353094095
aF21.107083550972824
aF10.461132663529893
aF27.92115849920167
aF-10.901830946936311
aF38.265065361552715
aF27.996028602427362
aF-32.506287617020156
aF12.080052944444674
aF-322.22806263051552
aF63.841516363897362
aF-22.066359178192965
aF6.1988613371692844
aF40.918270430928274
aF35.672394408929698
aF28.206978528799027
aF-52.255382595702464
aF9.7396612408325911
aF23.700828412976072
aF-40.987914596903252
aF-58.363003941354549
aF-27.817850677832041
aF12.033067253139297
aF22.760516736216129
aF162.95920272449467
aF11.580401186127707
aF27.448022028583143
aF-425.91724542568193
aF43.786456641228696
aa(lp189
F-0.22582843736618952
aF-0.033904200581112098
aF-2.6875730875497359
aF-1.6179000877003633
aF1.0262749573231003
aF2.1233390413149502
aF1.0087926397504052
aF-1.1822201728298198
aF-1.2903764733017977
aF-2.1436075341330261
aF-5.1922778170317434
aF1.5668352066546158
aF-3.4681242945241681
aF1.3078388517664965
aF0.35773196733735463
aF1.6048621476521092
aF1.318054115209633
aF-5.6151366620544723
aF2.4427377763880385
aF1.0784299525831629
aF-0.79165199903998185
aF-3.6626871342355218
aF4.455855878685794
aF0.7244810518622864
aF1.2601130241575036
aF0.79287422582788247
aF1.2576689744176983
aF1.8009070894174837
aF-3.3088819044534485
aa(lp190
F-0.55369873999292996
aF1.1232228120126104
aF-0.13762879492558722
aF-0.54354335155827338
aF0.30930196126499515
aF0.79234178268894717
aF0.77158751327129427
aF1.2212389073704331
aF-1.0560320315617913
aF0.5401954673300674
aF1.1055360075496883
aF0.46125544947131403
aF1.0837888408518246
aF1.0732131293304645
aF0.66507507508500319
aF0.55881884519495451
aF0.36342853821461724
aF0.52012763700078202
aF1.1465542208598416
aF1.0372375367207278
aF0.61001050376235688
aF0.54855578484055012
aF0.47665064616843722
aF1.2214966909118572
aa(lp191
F-0.58241156139396688
aF-0.66260401260752788
aF-0.33520216513887674
aF0.22215122344220262
aF-0.040679061217368966
aF-0.17597963448008289
aF-0.099004720072544045
aF0.13860488137429108
aF0.73834809463325657
aF-0.2908418150204865
aF0.12828366906616662
aF-0.81934765446140168
aF0.8450632920998643
aF0.22737008376765735
aF-0.15121266908189587
aF-0.45652212891124316
aF0.02660490359643446
aF0.73797197817374083
aF-0.25514365835053399
aa(lp192
F-0.90508678350840577
aF1.0743816166685756
aF1.3503367196439637
aF-1.4712874060925911
aF0.4764072816614992
aF-0.23379939231579741
aF-1.4575260171010112
aF-1.4753791590366461
aF-0.60424400232840347
aF-0.46898968092908566
aF-1.0114297323897843
aF1.2211194347757024
aF0.81536269789993332
aF-1.1902014737017033
aa(lp193
F-1.442744123428189
aF0.031370139714675407
aF-0.50930522801720179
aF-0.19549932963521044
aF-0.5114506003895124
aF-0.59243208709682049
aF-1.6334339656675627
aF-0.15024112275969007
aF-1.0920776411018889
aa(lp194
F-0.53040383552901604
aF-3.1971459465845951
aF-2.1058796980726955
aF-1.8902304249255377
aF-5.3836211168610051
aaa.