(lp1
(lp2
(lp3
I1
aI0
aI0
aI1
aI0
aI0
aI0
aI0
aI0
aI0
aI1
aI0
aI0
aI0
aI0
aI0
aI0
aI0
aI0
aI1
aa(lp4
F4.5397868702434422e-05
aF0.99999039916542909
aF4.5397868702434422e-05
aF4.5397868702434422e-05
aF4.5397868702434422e-05
aF0.99999376977482679
aF4.5397868702434422e-05
aF4.5397868702434422e-05
aF0.99593110409119234
aF0.9997666785339836
aF8.5317294734919938e-05
aF0.99999950586387432
aF4.5397868702434422e-05
aF4.5397868702434422e-05
aF0.00041226181247516346
aa(lp5
F0.9999948069045046
aF0.9992476072804799
aF0.99940460619425819
aF0.99275072185848823
aF0.97161535360036999
aF0.0095257361868174538
aF4.5397868702434422e-05
aF0.98006357897384677
aF0.984569040644795
aF0.0065008856545936853
aa(lp6
F0.9948756074968419
aF0.012409044789327965
aF0.00060457455886541323
aF0.0011069212431503599
aF0.0028971990475546508
aaa(lp7
(lp8
(lp9
F-19.487729478758904
aF10.305094966996307
aF-5.7172813929889523
aF-13.051742636609863
aF-10.604359781309913
aF10.431656804866112
aF-21.99098183890764
aF-28.459684546993959
aF5.4143132993772021
aF-3.2080099072892105
aF-17.270540873843082
aF-14.818309822726766
aF10.516413690305397
aF-12.918803312944508
aF3.5838369578697424
aa(lp10
F-13.361891855959149
aF9.1338655958126456
aF-1.3773324447106285
aF-19.291800913927204
aF-1.5718736337616142
aF4.3260348955509578
aF-17.452408560759878
aF-2.8039959929161182
aF6.2904587165870298
aF-3.5231789857665108
aF-19.148541277917317
aF-1.1190365237091489
aF3.6403403970963302
aF-13.03008087283871
aF-0.83914896738638156
aa(lp11
F0.43805067970934891
aF-10.197569241895295
aF0.42304791429740796
aF0.8548425709207047
aF2.6653519798132987
aF-6.3431141215612161
aF0.57710885144418678
aF-0.40635703537162926
aF-7.1864509714904861
aF-0.17133903343009002
aF0.34184731163538257
aF7.7898996276778307
aF-1.9031054896171797
aF-0.13577549757927615
aF-2.1772838656268507
aa(lp12
F-9.4599198456518536
aF3.7123585938251082
aF-3.8886732869399481
aF-4.9891263984707139
aF-6.1214531625119646
aF0.7794760540789063
aF3.5705231875737971
aF3.6570630576178305
aF3.1077224170389139
aF8.4109989044306186
aF5.4253868960778107
aF8.5998380087673656
aF-7.4693832797297617
aF1.6450301072300235
aF-5.0385014322866057
aa(lp13
F4.2556458409481852
aF-16.896029169722436
aF-20.223447366809527
aF18.346375241811444
aF19.164739850870646
aF14.464312291578018
aF11.026033367591578
aF-4.2640349441658234
aF-13.009633747889225
aF-21.260844813925502
aF18.51958597811743
aF13.849644482594742
aF-9.551956682435037
aF1.5267265117780449
aF-14.937987495606274
aa(lp14
F-1.533284411120549
aF-21.051036158534121
aF-1.3591246197219071
aF11.949809477766751
aF8.8307394618794586
aF-0.27851407854999782
aF-4.0928992334882679
aF2.9109076400280847
aF-12.087634584789784
aF-24.108348605658485
aF0.62514384578420035
aF2.0541278845521882
aF-6.9773589126140561
aF-2.1670380263985867
aF-8.9544236048003665
aa(lp15
F4.822812971540718
aF-4.1536121588187171
aF18.753852936307553
aF19.229978155069904
aF-17.86640244327198
aF-17.65703803316952
aF5.2938611342016237
aF7.0130628951427063
aF-11.409418825403991
aF27.678749677632766
aF18.149082183388465
aF15.065231488103858
aF-16.477470066461233
aF14.98778575871324
aF2.1550520238995161
aa(lp16
F5.4433520527120347
aF-2.7616020047102201
aF18.537257151221073
aF0.46238348334056106
aF-9.2667019415206386
aF-13.921443584899434
aF-0.22313731972672329
aF3.8064141125967148
aF-11.286722172494651
aF-4.1117819927626957
aF-1.1417489233728864
aF-3.6331814281940029
aF-14.417452836782275
aF2.265865067184158
aF1.8434777048450193
aa(lp17
F1.8675358008522558
aF-14.570078803692105
aF0.98108547705149707
aF9.7089098666796314
aF6.0401321254215716
aF-2.7335115802679804
aF18.294009744077037
aF2.9156621027103888
aF-12.29593514010063
aF0.35062639644711779
aF13.073242658336019
aF11.44907917221968
aF-3.1948670653964819
aF1.5315900743300108
aF-3.7915153871513421
aa(lp18
F5.1883097792813686
aF-15.145017427799493
aF2.8039925829802579
aF12.863221890194213
aF5.0204495227433865
aF-4.4581188759261412
aF17.094758707850705
aF9.6630121780238252
aF-10.586701253537134
aF-1.7461992618802868
aF6.9137826358087215
aF12.851215040438605
aF-7.082135765679114
aF7.2736950417272528
aF-1.4254045504033186
aa(lp19
F1.5962488750574884
aF3.8076856525037024
aF-1.3190539056908861
aF3.3081793707493516
aF2.4964892659058058
aF5.171404364484288
aF-8.7383946650334003
aF7.6084857732224709
aF-0.74007281217215892
aF-5.6088674749976333
aF-1.9742203363887862
aF6.5153442593610178
aF-4.0932542879952152
aF0.86366567453242804
aF0.47071878777442372
aa(lp20
F2.2310134728767279
aF3.4561527911265753
aF-1.2343238957731273
aF9.1051880997821364
aF3.4995816882091071
aF-0.88201020655834728
aF-0.14981543970335767
aF1.6224196014242633
aF0.39443490201297382
aF-4.8139434350462542
aF2.1489394917172198
aF-1.6192216260105106
aF-5.4170443618845185
aF3.3190954985212513
aF-3.6494270538356246
aa(lp21
F-0.96735831984115739
aF2.2934417165374432
aF1.0141097304075246
aF-11.540179941061833
aF-4.2100437239842368
aF0.363257016115972
aF-0.89358608015744612
aF-2.4910336441461496
aF0.86346749390296973
aF11.517983184118926
aF-7.4105019275973456
aF-1.9122107094172236
aF1.9748869782788401
aF-0.8363830731647649
aF3.3064203070593838
aa(lp22
F-0.83676654421693719
aF0.62148556179777015
aF2.8558754428088409
aF-3.3233575387380596
aF-3.9493542911129
aF-1.0780765116537416
aF-1.6398266086309479
aF-0.035132880765201373
aF1.0410909370677475
aF0.79897655198541628
aF-4.6011544098392019
aF-1.810280124206068
aF-2.7240678301327077
aF-0.9279181454863481
aF2.6711325953266676
aa(lp23
F-1.8099652444120828
aF2.360371416437451
aF-12.418475469266866
aF0.055394609626470782
aF3.9477905414880148
aF1.7137971078094476
aF-1.6260130214259538
aF-1.4864979655964516
aF-0.091592161450218465
aF-1.2785191627605925
aF-7.4988368606241629
aF0.65225776051268403
aF2.2470612453085157
aF-1.8213373469766434
aF-1.101622787805999
aa(lp24
F-1.120188724280776
aF0.41616384783195121
aF-10.808799559538379
aF-3.5655953704244441
aF3.4357333981618661
aF2.3087056366729222
aF-0.22775262321083048
aF-1.5089484409508833
aF1.2034404580106492
aF-4.1441116895374099
aF-2.2442352988537428
aF-0.31438949059892479
aF8.4179461166722813
aF-3.8873957699323891
aF-0.098671483004638877
aa(lp25
F-0.011352372328397625
aF-11.145238943330479
aF-2.8316301826283059
aF1.4686947644279766
aF2.0131669413601507
aF-0.67419464031664733
aF1.811697548315087
aF1.0741064851624214
aF-8.4940572620370425
aF-1.3116316818441636
aF0.67884565576056688
aF1.439131935331917
aF-2.1640074611289895
aF0.79740345788029632
aF-1.2978909585390275
aa(lp26
F1.4370285180746598
aF-9.105641421040124
aF0.99460641800974736
aF2.3056895524121117
aF-0.30670321555580377
aF-1.4034025590093229
aF7.9016664443373745
aF1.5646315374367381
aF-9.621135112382067
aF-0.63489055889592683
aF1.6022292404921004
aF10.835096406822947
aF-1.7079737735964149
aF0.67065090474971822
aF-0.065654829506752777
aa(lp27
F-0.8595764450055291
aF0.79230019883638969
aF0.908896059709426
aF-3.3444203160351407
aF-0.69033390149915574
aF0.57694666291143026
aF-2.4786966602628073
aF0.15477529716350438
aF1.1234379102369589
aF1.9239849190212219
aF-0.57688007864377899
aF-0.81071615670210462
aF0.70102622965206396
aF-1.1418626004286327
aF0.63299067124199204
aa(lp28
F-1.2191513294497267
aF-0.9313736978568472
aF0.31344077732922482
aF-3.206511292480271
aF-0.31443263432770047
aF-0.18986196146106871
aF-1.4867865792008264
aF-1.1386815296314068
aF0.93127265429254158
aF-0.48967959528628729
aF-1.4557557600405246
aF-2.0066832543336881
aF0.14081670626171786
aF-1.5417158123326824
aF-0.1190095674119615
aaa(lp29
(lp30
F-2.671359604308404
aF-1.2146216374177503
aF-0.31797936250618836
aF-1.5152032242659941
aF-1.6289610984098328
aF2.0417077912082835
aF0.24843605694392004
aF-2.1518145242184437
aF0.069834314890412946
aF-0.28211649293614682
aa(lp31
F0.38860337157131319
aF2.8792764501827084
aF0.4196579993197429
aF4.2382403049193877
aF3.3682807376940112
aF-1.0221515186209209
aF-2.2193049718570346
aF3.4031967619744825
aF0.860401803703852
aF-1.2014814674593888
aa(lp32
F-2.712858369405057
aF0.6394453381432158
aF-3.2068729739032764
aF-1.5212702577106287
aF-0.07041559221033257
aF5.5160563166022696
aF-4.6684178332838044
aF-0.46644926721294488
aF-0.63697888363110122
aF-4.0982866929713602
aa(lp33
F-1.7390566175369142
aF-2.8249262160336168
aF4.3389068943348983
aF-3.9293337478486312
aF-2.2274139565411417
aF2.1264684626024319
aF1.1735875440927839
aF-2.7550827215817191
aF-0.36426048752893386
aF0.94428189521448336
aa(lp34
F-0.26255555149741933
aF-0.82771872521315015
aF3.0274886239745595
aF-0.48207761912565539
aF-0.59344958875350251
aF-3.3396057000910928
aF2.5136120377317925
aF-1.0941370984572276
aF0.25873645260639677
aF2.3288235896800296
aa(lp35
F2.3549999688163488
aF0.9701324773652511
aF4.2666710061209061
aF-0.14926882868219596
aF-0.80955185562338994
aF-3.1378379065556095
aF-1.2509245381736898
aF-0.72937813846052824
aF0.46177574491565376
aF2.5007133945360409
aa(lp36
F-0.70915730968593449
aF-2.2866125625420151
aF-3.7038533059928147
aF-2.8074690072361368
aF-2.070581322015367
aF-2.3846298757598228
aF4.5547023191364069
aF-2.7024131173877639
aF0.34272033279821773
aF-1.3881081546173333
aa(lp37
F-5.6049876285751941
aF-2.0733300806307664
aF-1.2977901638589522
aF-1.0164963190435277
aF-1.1375427419191684
aF-1.2229517164354697
aF1.9292425596568514
aF-1.4140593894374265
aF0.27116934333429121
aF0.30978641188962097
aa(lp38
F1.3721152682039333
aF2.8242226394974494
aF1.9342407935523367
aF5.0226020058807723
aF3.0626531239725021
aF-1.3011799416694259
aF-2.674162639077283
aF3.3060020507788193
aF0.95682459415848908
aF-0.76661753288133772
aa(lp39
F3.3082717962849664
aF-0.8353136480379123
aF-5.7390111205410159
aF-0.077136640360806669
aF0.4628164720059208
aF2.1219269765543984
aF-2.9858135742052201
aF0.92565811197735126
aF1.2786357813435008
aF-6.2182812404559504
aa(lp40
F-3.2451787652864375
aF-3.6357429093653781
aF0.47842234193458921
aF-2.016899447018961
aF-1.8481505523733472
aF1.2957380353857477
aF0.85660038165244434
aF-2.1546352175578853
aF0.526053139056751
aF0.51205924460022767
aa(lp41
F-0.35067090672696727
aF-1.3678986751891744
aF-0.036240432769860019
aF-4.7565577163084205
aF-2.5825430313700939
aF0.18003211254447202
aF0.85107676646017383
aF-3.6196691979827769
aF-0.4399433751724216
aF0.78712820767388647
aa(lp42
F5.3377192221654663
aF2.6412207060341131
aF0.96268101688484875
aF1.0129193365164604
aF0.63605328119702997
aF-3.2698385853720451
aF-0.65456771611401032
aF0.8196093893932388
aF0.47772582882029291
aF1.3055822094877181
aa(lp43
F-2.1990868221519353
aF-1.8108805301619284
aF-0.51528158263451296
aF-1.3817380323312958
aF-1.2698105518782268
aF2.169153130381885
aF-1.024996062387487
aF-0.93584001530197392
aF1.3471219659228866
aF-0.61357400799967909
aa(lp44
F0.67029992037257324
aF0.47060856394791101
aF-0.66453608956585719
aF-0.1674098613700403
aF0.20938246356714282
aF0.27663538007828581
aF-2.882153674774123
aF0.59156338329209057
aF0.96515373058725473
aF-1.8502033475105923
aaa(lp45
(lp46
F1.9435414235387078
aF1.2899944416514211
aF-1.7913484764241394
aF-1.9194012565469849
aF-0.91055046598697642
aa(lp47
F1.0935494666444425
aF-0.51385500178708876
aF-1.3600370022939441
aF-1.2361899670998919
aF-0.69708783067616498
aa(lp48
F0.88271810035422305
aF-1.3070630163536561
aF2.156569265806239
aF-1.7367700363952789
aF0.013113864786202668
aa(lp49
F2.0903011590923088
aF-1.1060113322513845
aF-1.5626549744950593
aF-1.356665139012261
aF-0.84117955424825885
aa(lp50
F1.3065521774365874
aF-0.30580287041771581
aF-0.57385154254496651
aF-0.20919319796157185
aF0.18847470191092194
aa(lp51
F-0.40156023945150909
aF-1.8245606114130435
aF-0.85748171406226914
aF2.133696396586199
aF-1.0822131790063911
aa(lp52
F-2.3437742794800069
aF0.78482567496739319
aF1.5375675153244439
aF-0.73176499003058448
aF-0.76350236203809208
aa(lp53
F0.61796420402840602
aF-1.0890999970861994
aF-1.4673827884694599
aF-1.099896869826211
aF-0.26212203450846033
aa(lp54
F-2.108182186266605
aF-0.59193128643725046
aF-1.4791455611897431
aF0.20777357548109571
aF-1.6323978550783693
aa(lp55
F0.23170707776599297
aF-1.0591818456903026
aF1.5109157324883569
aF-1.6158430358653206
aF-0.27434917006056025
aaaa(lp56
(lp57
F-9.8366727846073125
aF-6.340107954084421
aF-3.6029136818504583
aF-4.6254662804970481
aF-3.0174782963689113
aF-5.2065689715482169
aF4.2467753844391538
aF3.947368734425392
aF-4.1844776976192124
aF8.258534924548993
aF5.9050761609608999
aF15.230265046598927
aF-9.7118549492676873
aF1.4983000560455351
aF-6.6909343899384783
aa(lp58
F4.1017172377414246
aF1.7348215092421269
aF5.5884545642062839
aF-0.31547246163452841
aF-0.88640290838612035
aF-1.5154640712910006
aF-4.8172391754854562
aF-0.32487847860278923
aF0.057659182148177904
aF-0.14097500542277394
aa(lp59
F-1.509694359918559
aF-0.79108174637649753
aF-1.4143599957074593
aF0.49653277842299054
aF-1.7218294972091663
aaa.