(lp1
(lp2
(lp3
I0
aI0
aI0
aI0
aI0
aI1
aI0
aI1
aI0
aI1
aI0
aI1
aI0
aI1
aI0
aI1
aI0
aI0
aI0
aI0
aI0
aI0
aI0
aI0
aI0
aI0
aI1
aI0
aI0
aI0
aI0
aI0
aI0
aI0
aI0
aI0
aI0
aI1
aI1
aa(lp4
F0.99612832269236229
aF4.21761909171859e-05
aF0.99519181845488791
aF0.99883404190202296
aF0.99801364707135032
aF0.10446958604375307
aF0.97157139513701551
aF0.061168524169340661
aF0.0029435834851270098
aF0.023241993905282775
aF0.99518957946082121
aF0.99999961098159373
aF0.00063620436777762066
aF0.99999262854748538
aF0.99590597161355765
aF0.0017078725390019447
aF0.000121280801245901
aF0.99999053543788441
aF0.98114132652616848
aF0.99886019848478547
aF0.36243377992504172
aF1.4719704930397207e-08
aF0.99999983338830645
aF0.95440200060536085
aF0.99999576576022042
aF0.021769425080854284
aF0.005089437595420636
aa(lp5
F0.9997572305950343
aF0.062434208541137376
aF0.99999754109883765
aF0.93749043689369238
aF0.9884195568126749
aF0.00085506180782326526
aF1.1062759099291202e-06
aF5.426608666452595e-05
aF0.69407890595116994
aF0.99999997449621914
aF0.99541267245280751
aF0.9999537636729332
aF0.93104089274352475
aF0.17887730216888373
aF0.97271671809033822
aa(lp6
F0.0021042386021731469
aF0.02646836487123266
aF0.78723383836598571
aF0.32746079920764487
aF0.0081351369126308557
aaa(lp7
(lp8
(lp9
F-9.4155275390056907
aF13.357376704119202
aF-0.68996492186014091
aF-6.7568124190316157
aF-9.098801525488847
aF-2.6596022499430467
aF-3.8218555700639825
aF6.3468677670943325
aF-7.7817001280491214
aF1.2242569603725482
aF-7.8744332581517762
aF5.8303182654805159
aF5.8395133704824076
aF-5.28738233104208
aF3.2920629479651313
aF6.8185475207312134
aF-3.0180514260561671
aF1.9194634093860217
aF2.8929420048549161
aF-6.705336108673154
aF-0.87856720445833669
aF-1.0916951768207854
aF-0.97856221913724872
aF-8.101171130700493
aF2.3014499595869338
aF7.520270248971852
aF-6.8975166552985607
aa(lp10
F-6.2824182689245784
aF1.278598769608444
aF-0.1762791810154023
aF-0.88367335111751377
aF-8.2899020642270376
aF-2.0983387352043299
aF-4.8218194011648192
aF8.6932121854161455
aF-1.6160805519958614
aF0.55906950406022582
aF-6.4424929073499309
aF-0.64608044883215476
aF7.1884900296968217
aF-1.3194022598393189
aF2.859500641013025
aF1.1867123686146852
aF-1.3705397937534378
aF0.48178951284638283
aF1.8966958134493208
aF-0.035126550945553385
aF-0.58053291866557932
aF2.4098484455240392
aF-1.6899256227570636
aF-4.4209872711934031
aF1.0758974804570949
aF2.925070345027569
aF-4.6339629926057393
aa(lp11
F-5.0864678204890303
aF0.89066685713028726
aF-0.22902328122585386
aF-4.1520212347655958
aF-4.1156529677650884
aF-1.2832132355159884
aF-2.1063034961772491
aF-0.095802729275452608
aF-1.4778163987621167
aF-0.46936688334513826
aF-4.1263349166035548
aF1.3760148760852102
aF2.1674508339101575
aF-2.7097092331007278
aF0.9135431110979495
aF2.2119253971331925
aF-0.12828891123429373
aF0.40567275164204425
aF0.52816892601352516
aF-1.6969441426071237
aF-1.6379917575456271
aF-0.11716602235092674
aF-0.69094813068442396
aF-3.1934395207108408
aF0.62731767234765634
aF2.3683827826718136
aF-0.53621914190016184
aa(lp12
F-2.4618056248886635
aF0.16951207632018911
aF-0.31191548892225013
aF-0.57541751162435406
aF-3.3408105962242516
aF-1.6041048482810754
aF-2.0780262800380975
aF1.0650837112371989
aF0.97318996553947257
aF-0.10186004029808639
aF-2.7741009697972521
aF-0.8280758012262166
aF1.4408401852117054
aF-0.88830030524050041
aF1.3975102694938244
aF1.3247440033775422
aF0.46090841972562863
aF0.20023346425806113
aF0.99814341067299162
aF-1.0258737659245192
aF-0.55713178236946337
aF1.7712533675769351
aF-0.84837741272635858
aF-2.6123765648491588
aF-0.047935312737929468
aF2.2088410832547183
aF-0.12908354861407378
aa(lp13
F0.49606964912328938
aF-0.64434295058211932
aF-0.077838134681894336
aF0.36243649604586065
aF0.48686123815985005
aF-0.23787171261929352
aF-0.03659435756564014
aF-0.31115596409016422
aF3.0850748741690039
aF-1.2041733533152374
aF0.074418253292235281
aF-0.29585274311642162
aF-0.58817963084577352
aF0.61479526154662478
aF-0.66220668086777568
aF7.6949896048201686e-05
aF1.1366656336554049
aF-0.18206810215593738
aF-0.73191773111895753
aF0.42361744444164096
aF-0.17586107825143502
aF0.44047074989429463
aF-0.41698005325902104
aF-0.40854367520735202
aF-0.75016540831958056
aF0.17331640515058175
aF5.876262291704351
aa(lp14
F0.66245108213848569
aF0.45357966309589121
aF-2.5530596298960573
aF-2.7916410404013758
aF0.48820145871975718
aF-0.78753638175403484
aF-1.5908890433708465
aF-0.086469715006493197
aF-2.533077322182292
aF0.7671183396149559
aF0.66893272818530802
aF1.3830506592168414
aF-0.37083332728750507
aF-1.0289996075467793
aF-0.67340725590376238
aF1.5167963489027216
aF0.26732245307583224
aF0.81097379362302591
aF-0.067805115366442029
aF-3.740286231958645
aF-1.1182775998947496
aF-2.9305169801721007
aF1.7379167731224781
aF-1.3061891616573493
aF0.63108757704840235
aF1.4282779881081982
aF-3.6858317914334728
aa(lp15
F-0.12329170622870245
aF-6.2249206105814867
aF-1.0105417158605068
aF-1.1294975875255429
aF0.7224015374140913
aF-0.18196525932398461
aF-0.77244083118903739
aF0.22251371006503856
aF-1.1844747680828613
aF-0.95218974791838473
aF-0.10431081618561165
aF-4.674427274786165
aF0.27016055156854601
aF0.1514733883728428
aF-0.49205020885518974
aF0.10044683302876277
aF2.5145331095364889
aF-0.5569948386106548
aF-2.030197307437529
aF-0.72055983144108093
aF0.02172724724215604
aF0.67856576233733035
aF-0.6398823065784055
aF-0.1915477583503738
aF-1.2448290713499803
aF0.89596994071346892
aF2.9467894154760828
aa(lp16
F0.57867179080993314
aF-0.091851278916910167
aF-0.68348096458677554
aF-1.020283305114422
aF1.3316751488736498
aF0.1917793415491138
aF0.40274174126591633
aF-0.92264979135472924
aF-0.92357537995520189
aF0.83669961723408803
aF0.81967043408385876
aF1.0565053066254368
aF-0.41463790956372493
aF0.18653328044619386
aF-0.54584233087135603
aF0.36156221137164613
aF0.78863334026430587
aF-0.077513061145278173
aF-0.21956277619396306
aF-0.66018371789287533
aF-0.1194954649300993
aF-2.4735252368721148
aF1.301256599004174
aF0.72424690956060522
aF-0.010197756957415448
aF-0.47420347108649008
aF0.48634454794901905
aa(lp17
F1.880189918323274
aF-5.1942549392432396
aF-6.6613071465475864
aF6.7546266754351807
aF1.5406724721034137
aF-8.883860710735684
aF11.475571324738121
aF1.7368552369055066
aF9.7606981602575651
aF-4.6388062644505386
aF1.0492529674217004
aF0.96726814485544099
aF-7.5851274266382447
aF2.6555593131653756
aF-1.7587307892317672
aF-5.7817944167688387
aF-5.3683521847994893
aF0.85547075350002633
aF-1.9486016614090262
aF-4.085872482669382
aF4.6271126403904201
aF-2.4527525642714405
aF2.4448044311730288
aF7.115525320546233
aF-0.043782162987341479
aF1.5271085692983544
aF-6.7601918393142624
aa(lp18
F0.97967711312502848
aF1.3328173806487684
aF1.0263193717748034
aF8.1401830694190949
aF0.77837323847718887
aF-2.2431547347377467
aF4.877692958444336
aF-1.2095228144071468
aF4.78250720781522
aF-4.2664161951249362
aF1.1740261283196833
aF0.61140986344568182
aF-1.4718929464227308
aF2.1133436760488586
aF-1.1333431021650167
aF-6.8663939174533875
aF-7.0008964796244122
aF1.5759309756331752
aF-0.94649954925083224
aF1.9955811825956959
aF2.8074163662485465
aF-1.290395764192011
aF1.2148152028304147
aF3.303535938858746
aF0.0061300733245565984
aF0.61989784287378302
aF-2.1160567474269274
aa(lp19
F0.65625891252732949
aF-0.72910005992492577
aF-1.3723375785116654
aF2.7858452276261017
aF0.12173797187270027
aF-3.6077376106970447
aF4.2893444874318387
aF1.733079179797858
aF5.3618905425726737
aF-2.0498234526125922
aF0.78156552247168487
aF-0.35785646332965088
aF-5.3461536847949311
aF0.9053974566579146
aF-1.0685876427961167
aF-3.476719284767956
aF-1.2047959214944515
aF0.14105604869507954
aF-0.66195786558598968
aF-0.61386554558438122
aF2.6806527345413591
aF-1.6363231870140573
aF1.6887555228459923
aF1.7530516653406529
aF0.051693025005789157
aF-0.11555719185324863
aF-1.8025272712767269
aa(lp20
F0.46453354834147459
aF-0.75821684442963178
aF-0.8668977236459583
aF3.0866006003476087
aF0.74255062469204458
aF-1.117550860549668
aF1.6753321628370867
aF0.93365673664638194
aF2.9913297048253216
aF-2.6435124053468813
aF0.12823720526890905
aF1.1602461360644774
aF-1.3568659101993428
aF2.5720014583714854
aF-0.66960167646610291
aF-3.2717413337109704
aF-2.3539166726022929
aF0.90877863624464328
aF-0.20747549312759692
aF-0.84409614574241798
aF1.0753813025612202
aF-1.3719646445196119
aF1.3775259911673863
aF0.99117062513456855
aF-0.33484003360287012
aF-1.1387615771222865
aF-0.7978987176086445
aa(lp21
F2.9144788748742578
aF-2.92800067959696
aF7.2267296039638271
aF0.23476772246323649
aF1.4833583132195378
aF5.715750058378533
aF-2.7235318177399561
aF-10.290112232904567
aF-0.47949076774495064
aF6.072705860550272
aF2.1860174447255201
aF0.67305541335871688
aF-8.1194608236580716
aF3.0551217134019697
aF5.4396788338742912
aF0.23043901594661156
aF10.345741129747637
aF1.0445166335395639
aF4.7924823031600203
aF7.8650748882766948
aF-7.2277632181994482
aF-2.8304475710523076
aF2.7076216325037588
aF-3.3541554172819872
aF4.986138968899926
aF-9.6388245390271621
aF4.1212695240584436
aa(lp22
F0.35611861674321327
aF-7.9674207131612729
aF6.8849356574997582
aF-0.2229263526136222
aF0.044129127926029715
aF0.94478374534440479
aF-1.7651483310272824
aF-0.64946118556141652
aF-4.282394744075579
aF0.10112927125660147
aF0.15162256683890529
aF0.30065645059895313
aF-0.97829920451942165
aF1.8863002135808662
aF4.3874383286562688
aF-0.41593224745613977
aF0.82897760365808226
aF1.423981688935803
aF3.3244704478495462
aF8.1166394193385134
aF-1.2391061144161275
aF-1.4478682473811351
aF1.7278188366366847
aF0.026499258771227656
aF3.5727033078396366
aF-5.113124324111527
aF-1.1162472182127681
aa(lp23
F1.3815708665614022
aF-3.8093869512804068
aF2.7691218865152831
aF-0.005780847461667289
aF0.32879364828995172
aF3.5534015583072844
aF-0.80641674255918561
aF-5.1517453097115258
aF-2.2132182498177233
aF1.3164630877102697
aF0.093853021417589291
aF-0.091949794430178464
aF-6.7775637149815129
aF1.1391898382575869
aF2.8032792981604797
aF-0.030643276586751741
aF4.1296485407886161
aF0.13449829465006458
aF1.9454172468560937
aF2.0737691266226532
aF-3.9335621854342437
aF-1.6399066572542833
aF1.6853181301536693
aF-2.3378466581185418
aF3.4311195186240471
aF-1.917879157994401
aF-0.85524810246530847
aa(lp24
F0.21029722281473309
aF-6.4653675201746159
aF2.9249801365705204
aF0.54510018085871736
aF0.89897615543208065
aF1.3505600825483643
aF1.6337194346762924
aF-2.5835363068937705
aF-3.7998970367209397
aF0.89975427254258866
aF0.51083419337101577
aF0.44905351629812923
aF-2.0064834525676449
aF2.7453195060786628
aF2.9424186499749596
aF0.36698839107003206
aF1.5892422471664682
aF1.3518187725340292
aF2.0159647375978751
aF3.511339649776839
aF-1.1895676407292892
aF-2.0970507756160939
aF1.8373496761571642
aF-0.74554338075113058
aF3.721220902927322
aF-1.6458793521350688
aF0.039559573632677272
aa(lp25
F-0.74789862713800437
aF0.94964305915104474
aF0.81575991309013862
aF-1.6982053506357158
aF-0.70930379728213366
aF0.68318995708091046
aF-2.9597967034962069
aF-1.2436784901421138
aF0.049154563654879038
aF1.8534642171754747
aF-0.64745114992965258
aF1.0472016567649733
aF1.1285364621304366
aF-0.38245990837349603
aF1.1089081132993615
aF2.1090256134673795
aF1.2767081843329855
aF0.64091920256118906
aF1.3558140698573931
aF1.6172596659696401
aF-1.6626446766238787
aF-0.77878238410333001
aF0.21215794644849473
aF-2.2831908898111668
aF0.85791308432133551
aF-1.2596884811220233
aF0.40473140373581767
aa(lp26
F-0.94383315453511685
aF-0.34931461638408984
aF1.5108012955706545
aF-0.17872807477530481
aF-0.86723213663789944
aF-1.0368321989941027
aF-1.4723706900913258
aF-0.63075806899679898
aF0.28799184360109059
aF0.32680085594923086
aF-0.8240874604101891
aF-0.9636271028206369
aF-0.29810515806966598
aF-1.0989941810405304
aF0.88143418272501062
aF0.31177669939492331
aF0.53610574305849257
aF-0.15338885883343603
aF0.73705389634583895
aF1.0846270879754538
aF-0.45477086111898168
aF-0.37786596373813564
aF-0.49834959129646472
aF-0.53394784473528123
aF-0.12242613604249825
aF-1.4609145321223809
aF-0.14177452611825922
aa(lp27
F-1.698042605545371
aF0.44543073163435115
aF-0.97034567833529917
aF1.722010051699165
aF-1.1482185270010872
aF-2.2022747900529511
aF1.0286841195917507
aF-0.081326829882926374
aF0.10393749226731937
aF-0.64857959009591903
aF-1.3287689725367204
aF0.13848321775633507
aF1.0696707890443982
aF-0.49373650558531273
aF-0.091141896394957872
aF-1.4759558438128011
aF-2.1407955793209235
aF0.020466671779637926
aF0.11886526402154904
aF-3.2198069985943611
aF0.51791030643986413
aF-0.67154480544982154
aF-0.29787160301675258
aF0.84835023538345511
aF-0.19513811558737296
aF3.2084224731165842
aF-0.14786139262380571
aa(lp28
F-0.95338179779511312
aF0.0634364598497488
aF-0.11674962302798939
aF0.97741714396095203
aF-1.0160078181191783
aF-1.8843480577822604
aF1.1183336281786302
aF0.43479477606896544
aF-0.24947058348314746
aF-1.0511747834311438
aF-0.99506570048848753
aF-0.58744825015276469
aF-0.054721821743325669
aF-1.323609615879149
aF-0.077407846990738161
aF-0.80207040938523022
aF-2.364224723361219
aF-0.0193899448226924
aF-0.59592175463437513
aF0.23033898849974771
aF-0.074683972252335834
aF0.90462580142401261
aF-0.85566909897289756
aF0.4227432982948634
aF-1.241255648811507
aF0.25930806507834819
aF-0.069734951400738834
aa(lp29
F-0.31919460655592141
aF-6.4230822407916666
aF-0.37287451742112254
aF0.09525560527757379
aF-0.042716332169844683
aF0.15573240992682477
aF-0.23428118671723164
aF0.58600185722163922
aF4.3611343150046773
aF-0.25891236780531307
aF0.64683734065040244
aF-4.0041555971994578
aF0.89693940873982503
aF0.056722349908240211
aF-1.0048915229489601
aF0.18494178281753937
aF0.45854192706533503
aF-0.87486926483636451
aF-0.15331655344689071
aF0.68757387289285421
aF-1.1959329688423159
aF2.3074821970349495
aF-0.52836414582244473
aF-0.10676721431734645
aF-1.5681692278652768
aF0.70830980197395599
aF0.63595035538742639
aa(lp30
F0.13020567705992969
aF-0.026489203779043277
aF0.62320509474062746
aF-0.48097735089712007
aF0.10670468537278392
aF-0.0071262546935373441
aF-1.9960246779795634
aF-0.63125946296705948
aF-0.21617079631090097
aF0.71390475881666293
aF0.049711854158714472
aF0.51853956536775869
aF-0.16521915201245257
aF-1.0340734791905251
aF0.15965009132919572
aF-0.042069200375754519
aF0.17256849233164037
aF0.23755785773795352
aF0.19555426442175541
aF0.080063716436312729
aF-1.0627651307933654
aF-1.2137521901108992
aF0.60494295365853656
aF0.35005669530702566
aF0.017652426445948718
aF-0.59686137212099422
aF-0.2716795046668552
aa(lp31
F-0.25913403504772353
aF-6.403983985258205
aF0.36249449691710917
aF0.88360222340346239
aF0.70506740551141667
aF-0.25410710220099236
aF0.064839670575478542
aF0.4955608790138501
aF4.7290441766116524
aF-0.91694603518998374
aF-0.29241564362957151
aF-4.4066549522202507
aF0.21284792992920271
aF0.030004917774115656
aF-1.04421952765241
aF-0.55800591915119158
aF-0.083914112538538241
aF-0.50478863343157443
aF-1.4188351040832883
aF0.10703805450037636
aF-0.4402608261030691
aF2.467752870618884
aF-0.58910592591706612
aF-0.18825403472130775
aF-1.4377302330138548
aF-0.66474495280150614
aF1.4615463531537636
aa(lp32
F-0.0015494212491094579
aF-0.038487026561445765
aF-0.95411177084044241
aF0.0085243143248236401
aF0.22318351316433066
aF-0.70962438894996238
aF-0.098798585680428819
aF-0.90431981267207229
aF0.025058728938794402
aF0.11241857810300016
aF0.056104612075284888
aF0.52522297889471514
aF0.17497310864811291
aF-1.7565717923131692
aF-0.51947903553505315
aF0.13042838267864357
aF-1.513957843985539
aF0.26205748000926865
aF-0.80793561115784129
aF-0.99542228872683791
aF0.082073285988772074
aF-1.4458759565135264
aF-0.1784037004467102
aF0.97904756716874231
aF-0.23756539900604134
aF1.3649041235673676
aF0.70034651407641069
aa(lp33
F0.35927278856880379
aF-9.9481703710127753
aF0.19706276277011198
aF1.3341545481357653
aF2.8476791405952504
aF-0.29422361276792125
aF3.6018943035712847
aF-7.2432527406879297
aF12.750744256410385
aF-1.5705949165369752
aF0.54634157318775423
aF-2.3772165311984881
aF-4.7770526029509774
aF2.3485041108604361
aF-3.4133914932282488
aF-4.2540339800485611
aF0.34783782167157179
aF-1.7978389938473356
aF-1.9636761035315051
aF2.5929814941133871
aF-0.81831541987761336
aF1.594396073176326
aF-1.2714695565556915
aF2.9033688899175987
aF-1.7793899296912381
aF-2.8492770568768289
aF14.454325870095481
aa(lp34
F1.3870712947321902
aF-6.6005203570084188
aF1.26016250739119
aF2.2287564839203462
aF2.4618716466636505
aF0.09290624451002677
aF2.6896962105577829
aF-8.3410960831107204
aF11.796668202240422
aF-1.6311284878565728
aF1.0400032778855604
aF-1.5431417840081261
aF-5.8469477727522738
aF2.1407210602010589
aF-3.0329158907913381
aF-2.9786043883510338
aF0.54684954535071162
aF-0.94966411611001122
aF-1.9851375871531018
aF4.5530826281622616
aF-0.25628625229637775
aF0.63739227544385335
aF-0.26422315586467693
aF3.3460148042332376
aF-1.2424108972782555
aF-4.3177743433050528
aF12.509785527123555
aa(lp35
F0.64619748072264582
aF2.2880822862638848
aF0.91641966610867487
aF1.1871186522319483
aF-0.11383612496246888
aF0.63633421703125026
aF-0.31585381983857147
aF1.1386551941035492
aF-2.3748855295201809
aF0.74049592631535377
aF0.547784576477374
aF7.9856522518547823
aF0.23265425894543126
aF3.5687866454151078
aF1.321706011451246
aF0.14948729278982109
aF-4.3334890559770409
aF4.7904635663777029
aF0.80725793939985435
aF2.2702510065203301
aF-0.020096836304595724
aF-3.5680700234278633
aF2.5951862179130787
aF0.33006200307347872
aF3.7891982062277512
aF-0.33206306699750393
aF-1.568001220975523
aa(lp36
F1.1247948937924201
aF1.9645230576808401
aF0.55883659875087432
aF3.1687691767710287
aF0.0059186304918887227
aF0.72934942079482878
aF-0.37156099094835537
aF0.75641308547100583
aF-2.0215875292185603
aF0.47215668172539876
aF1.1070249350127115
aF7.4804591454975373
aF0.41071350367619014
aF3.6541674193487088
aF0.87435045754135543
aF-0.074248260720156251
aF-4.3293245983906985
aF4.7946894607841894
aF0.66808556879058811
aF2.8694074960361786
aF-0.010169415139355075
aF-2.0047431597237821
aF1.5642913821802049
aF0.23551396881151065
aF3.3653624974684866
aF-0.34474410590325971
aF-2.5950154694797498
aa(lp37
F-0.86245198080542884
aF3.6957576521177127
aF3.966999155297966
aF-6.0984505335306238
aF-0.7210979165824658
aF4.4821528470565273
aF-6.4810054144622367
aF-0.10258938131340639
aF-3.6720590336026278
aF2.1210544423170092
aF-0.57780404491440263
aF-0.84439831167916446
aF3.4772561126412667
aF-1.6797380624901526
aF0.16898518887710501
aF3.0537589302609875
aF8.9785608420359591
aF-0.96686587865780149
aF0.5719737616599776
aF2.1047510000001295
aF-0.70625026298126958
aF0.69711485652928984
aF-1.202675451939291
aF-3.739580120480964
aF-2.0688032874687172
aF-1.4224297487826487
aF3.5870910381459074
aa(lp38
F-1.3173354496466985
aF2.6904872573014811
aF4.8366056173565175
aF-7.2839934828401329
aF-1.4728209741792317
aF5.1047954863382303
aF-7.0986250068387546
aF-0.54507017056829299
aF-3.2117397490055821
aF3.5471045336247728
aF-0.5375117000173536
aF-2.0659065009558879
aF4.8145612228353736
aF-1.6008595630492997
aF0.42371724255614746
aF4.7699740455985609
aF8.932806162905278
aF-0.87364314745470251
aF0.33893386633529005
aF3.3351093986483127
aF-1.9793251866942951
aF1.5255802264470995
aF-0.75662473196145785
aF-3.4224776064060687
aF-2.0370239358733611
aF-1.6923317163139289
aF3.0873386563790888
aa(lp39
F-0.78446485101630126
aF3.1884412061714649
aF-7.6060890158426382
aF0.59495385680946211
aF-0.25450651007137748
aF-1.6850167006478389
aF2.0538012424678258
aF2.8892514099965143
aF-1.0510072678210198
aF-2.808023445318744
aF-0.36095920741275866
aF-0.59936685146192048
aF3.7558650317164592
aF-1.9920517192406748
aF-1.4200455761845514
aF-0.16286514236857844
aF-4.0068670738141767
aF-1.5910757862245972
aF-0.67938581414737687
aF-7.5767932600014429
aF2.6341217513356905
aF1.0297159242413898
aF-0.35349412321995327
aF1.3562764410750612
aF-1.4279617017426611
aF7.0712001421978892
aF-2.4347926374293021
aa(lp40
F-0.60946344226254334
aF4.0606038953273842
aF-7.9599880041782258
aF0.18508156849738708
aF-0.57813692492271695
aF-0.15514057539563383
aF1.8850020101942924
aF5.0762412715062029
aF-1.7961189199145515
aF-2.1360772259280352
aF-0.26759327199370769
aF-1.630449926801218
aF4.0195731727819561
aF-2.9728898833036097
aF-1.204054239184944
aF-0.35756134175090798
aF-3.1505040880060098
aF-0.78978080036570741
aF-0.79434956481766916
aF-7.7528205168223572
aF3.5307911276712693
aF1.2000230574116977
aF-1.265278743162928
aF1.0389395092596698
aF-1.09126769580309
aF8.5280400604979114
aF-3.5576134428413488
aa(lp41
F-0.11031997692534541
aF-3.1671486161780678
aF-0.81119041507905665
aF1.8118553734167868
aF0.15186338637320806
aF0.35030568918929622
aF1.4740120699898216
aF-5.5885524270306952
aF7.5237880056492159
aF-0.45936760073731103
aF0.091432036822396145
aF-2.0288773352971021
aF-0.034369772480357844
aF0.22612300301527308
aF-2.5818195498768217
aF-0.653458208947585
aF0.035792589825355173
aF0.038564443462965288
aF-0.58424498068183728
aF0.086551446400143867
aF-0.33946159253030117
aF0.10654171641963991
aF-0.96140953893653769
aF1.8412094659420133
aF-2.3758416733581469
aF0.31389524518826545
aF11.538957813640517
aa(lp42
F0.71103611390245702
aF-3.8550752407693611
aF0.53858623864346056
aF-0.63079371306531606
aF0.82219545775535541
aF2.2368877392640059
aF-1.108129100162013
aF-8.2266668679139414
aF5.8733951474527961
aF0.02737181664958864
aF0.080739951114697214
aF-1.5507930932708152
aF-0.79167043444017993
aF-0.41967821587695398
aF-2.0454704612642489
aF0.27790475352993371
aF1.4110704160061931
aF-0.18813555424038278
aF-1.0772713259865347
aF1.3780803486196427
aF-1.2145907819012549
aF0.58014150322014724
aF-0.30743930330963726
aF0.41416436118799027
aF-2.3144080318577696
aF-1.2459960022700551
aF12.039268921572797
aa(lp43
F-0.019159724381924825
aF2.5560582415162489
aF1.2049702281668078
aF-1.6073502257672272
aF-0.031064164826913453
aF0.64308752378050538
aF-1.612531420293543
aF0.27966931798211137
aF-3.8815721858602235
aF0.89791655738492726
aF-0.069165333615381103
aF2.5776801010923891
aF-0.028560288880975268
aF-0.42945173116153434
aF1.1307217314603495
aF1.0576794455256096
aF2.0093514867671467
aF0.30292933749139844
aF1.1913466711057739
aF0.83405103718600004
aF-0.22116221894031352
aF-1.8560161266691233
aF0.19335329642813232
aF-0.79241434406731948
aF1.5630668479646646
aF-0.91702311163739825
aF-3.6843470450118061
aa(lp44
F-0.054441815838999465
aF2.1963779378675299
aF-0.80546035471598532
aF0.67208545677996689
aF0.090539525573656687
aF-1.4955151663040509
aF0.5551396179675675
aF0.91636148499749537
aF-2.182855464880451
aF-0.84313134327193962
aF-0.1641489331045185
aF1.6263323492377109
aF0.20511774105616506
aF-0.56578787677461906
aF0.22525215005617352
aF-0.56896351556049718
aF-2.1621966044286225
aF0.6397855165139984
aF0.44593113158324948
aF-1.5056409879842432
aF0.3996206673780151
aF-1.0943497380187173
aF0.76900070360797557
aF0.91200829397907124
aF1.3289661719883901
aF1.7387043206615991
aF-3.413678015133172
aa(lp45
F-0.077684517514985382
aF-1.1667313524150795
aF0.015528846967661747
aF-0.30465447984551264
aF0.96787213212667345
aF-0.28812572403120873
aF1.6670326567223108
aF-0.17903239927167963
aF0.9948512274994491
aF-0.63827113365041066
aF-0.30906230441616228
aF0.39783521877121608
aF-0.66029430400394407
aF0.61728312431236743
aF-1.5441696942941823
aF-1.8386606022309233
aF0.042688375301165968
aF-0.86538594509652245
aF-2.1315634459466768
aF0.84563260112248384
aF-0.84457418020188357
aF0.38797356077554901
aF-0.56992423356277422
aF1.7974832946798123
aF-1.0650154661291313
aF-2.2078544789216825
aF0.53495044286305948
aa(lp46
F0.12135591343739527
aF0.230750349532266
aF0.024831002132415094
aF0.31059876973703104
aF0.1617898329829115
aF-0.2119669427802808
aF0.079158373442194674
aF0.43422228737120416
aF-0.49299119222029092
aF-0.093889513083414894
aF0.17699963901924204
aF-0.086029557018768188
aF-0.050395075629981585
aF0.021839624014444864
aF0.088054758116508411
aF0.030075706042977799
aF-0.28307778326670602
aF-0.32878149568847659
aF-0.21575085444521608
aF-0.68856964673277499
aF0.43192877226456738
aF-0.47240092321693739
aF0.8081097799026381
aF0.016665496651963565
aF0.2582934357237574
aF0.07229657832481716
aF-0.073726213437733223
aa(lp47
F-0.056769004811326892
aF0.31633726265101658
aF0.044406030129178986
aF-0.65874097805151122
aF0.027770704383298733
aF-0.29053352188543818
aF-0.54314743844629287
aF0.19005432396477845
aF-0.78201806162527476
aF0.26127756962789983
aF-0.057249006580520921
aF0.3184374534644876
aF0.36657075893738733
aF-0.36088895329005877
aF0.17972542321917126
aF0.48892081935796194
aF-0.092232005655822499
aF0.082813211434036152
aF0.25069850964903267
aF-0.15970299127645118
aF-0.72094792502417571
aF-0.28711996317067734
aF0.72896923552745974
aF-0.13310394329079422
aF-0.032731435185818607
aF0.43653325850392649
aF0.40786011132486499
aaa(lp48
(lp49
F1.1518102581779124
aF-0.67643295381503521
aF0.7970932991182782
aF0.33229484412290144
aF0.51229099687710444
aF-0.35007384771067218
aF-1.3728352263511727
aF0.94050091565694149
aF0.36909832713210161
aF1.0155479462765724
aF-0.80943813771396567
aF-0.61760994300334349
aF0.30918509616569045
aF-1.5661928283087589
aF1.5897665033638091
aa(lp50
F-1.583214227520864
aF0.49677970286601031
aF-1.8287405634121698
aF0.33344491981895658
aF0.6527669904674368
aF-0.41027639458787968
aF4.7510882982230198
aF1.121115289456728
aF-0.52498622746620904
aF-1.1860819440722674
aF1.0930391650934621
aF1.0676692826214029
aF0.21730386016762362
aF1.6763487068973533
aF-1.0897513162094032
aa(lp51
F0.057424695495012029
aF0.21633427193209032
aF2.0367058954422013
aF2.3940478198021728
aF0.30926884601767285
aF-0.43289817983474699
aF-1.4855200259130545
aF-1.2484963678534855
aF0.25002251585465812
aF-0.46348234443808922
aF0.52987477246236181
aF0.90324578473312411
aF-2.5235935275562245
aF-2.0356108230347449
aF-2.3252442065472763
aa(lp52
F1.0141627937109439
aF-0.83225375123369738
aF0.97428566766590574
aF-1.9135488631443474
aF0.011381997668156252
aF-0.27336461152986219
aF-1.2611094035468366
aF-1.3670544115980725
aF-0.035380125735526638
aF2.8271079251778608
aF1.0817214393066767
aF0.87748679058704948
aF1.2058951040660062
aF1.2637077972720594
aF1.4766544686198706
aa(lp53
F1.1396836818382761
aF0.053973784894409217
aF-0.12631350131748911
aF0.17849514690796783
aF-0.10910015442190514
aF0.090205844763467311
aF-1.5034593663046416
aF0.61238050470586269
aF0.44650745562297423
aF1.2202906978038994
aF-1.8990536977280028
aF-0.43371664692726625
aF0.46480299746032494
aF-2.4813672324391183
aF2.3245874624115999
aa(lp54
F-0.24120112281759612
aF0.85297523176423518
aF-0.13630576349467297
aF1.1149774163549939
aF0.6416719494797124
aF-0.018335987075669538
aF-0.5971140214980476
aF1.5308632945017502
aF0.72785698640367413
aF-1.7539450593245132
aF-1.4951612322012486
aF-0.44806110776324765
aF-0.77012075006439451
aF-2.0217024984172824
aF0.26482354265440372
aa(lp55
F0.81190726987127626
aF-0.66752587401436314
aF0.788230047739097
aF-2.2068989881581302
aF-0.25255672705590609
aF-0.2145655193328295
aF-0.26839345060728653
aF-1.2582311556991379
aF-0.42121770453333918
aF3.0438804529224117
aF1.8459176456388406
aF0.77448265075955969
aF1.3984184430018221
aF1.6430939667589146
aF1.3244279077637566
aa(lp56
F-1.2774473090163252
aF0.7731755849864187
aF-2.5398444487876697
aF-0.56274098671405082
aF0.38054025648359346
aF-0.90734202107460804
aF3.6207116963235615
aF1.0675131355616374
aF-0.44896190127224911
aF-1.9942937570873791
aF1.6568992540363663
aF1.0414790001074292
aF0.4412542863212095
aF1.5889218144958284
aF-0.23928738390473156
aa(lp57
F0.83418911436260468
aF0.25045943607957394
aF0.33979844055821129
aF-1.1200407187744861
aF-0.17609716859987562
aF-0.064136372496109581
aF-2.9353651256231537
aF-0.96643937557826531
aF0.24960784146005877
aF2.5197782800071695
aF-0.8258474308403716
aF-1.6229997206805702
aF0.92174491607688447
aF-0.95342554252487888
aF2.190194422634725
aa(lp58
F-0.41514130275811573
aF-0.18113097427687302
aF0.48336713809387594
aF1.0553602464302068
aF0.072617000653619479
aF0.17315307795110441
aF-1.1730445561539242
aF-0.24717794433590162
aF-0.55007974994088504
aF-0.63691142144646096
aF-0.43263173000306826
aF-0.23766581739472398
aF-1.0638351649700986
aF-0.59191090036344707
aF-1.4660932874156025
aa(lp59
F1.0404577954633871
aF-0.67775131355564933
aF0.047241070512351206
aF0.2694326395961717
aF0.71695110371646109
aF-0.24422721265402669
aF-1.3362831842612881
aF0.63738128208540579
aF0.57658375852671284
aF0.3865991041331503
aF-1.0462656039175218
aF-0.13668765474734657
aF0.16456013468890082
aF-1.0827180809310701
aF1.3685872815900035
aa(lp60
F0.95996919398537028
aF-0.3948759917002202
aF0.0014152767944421148
aF0.068549898358365391
aF0.21764486919366302
aF-0.95574746066619887
aF1.2436985549724455
aF-1.7488263682890286
aF-0.78703411529094591
aF2.0078496002720145
aF2.0954397315508841
aF3.1292316820503796
aF0.16762128679960128
aF2.4601884448783418
aF-1.9234351099486744
aa(lp61
F-2.3661573543825831
aF0.90079441177001818
aF-3.34920543686692
aF0.63298623683965338
aF0.78673510532811441
aF-0.14769416739072416
aF1.5865542091207829
aF2.1603661717919009
aF-0.57255961880026529
aF-3.3087148482972366
aF-0.14179119543634769
aF-1.0480242286362622
aF0.90858250986833711
aF-0.92995642203679252
aF0.6708209657647104
aa(lp62
F0.94712675926841605
aF-0.20645264516246822
aF0.86060878124335238
aF0.29718079011814569
aF-0.089896063509042029
aF-0.32363398088895068
aF-0.211571560028293
aF-0.43812357768406712
aF0.0094654189277982859
aF1.3700605575576363
aF0.73870185097262075
aF1.1052938473346916
aF0.38695505525453616
aF0.44380229069877769
aF-0.52216009940702679
aa(lp63
F-0.30788183747527387
aF-0.42722893555755442
aF1.2013228417761403
aF0.99293597608935125
aF-0.23508675732916193
aF-0.19380190618795962
aF-0.92440739664252269
aF-1.1581891217947866
aF-0.30029119700987489
aF0.33151189065999792
aF0.7726964400358397
aF0.77411078217369589
aF-0.1851171572104959
aF-0.11702704758031814
aF-1.0999607462510959
aa(lp64
F-1.1047521190844778
aF0.74530092925410174
aF-1.5454628656776155
aF1.5568539687271312
aF0.020416910667001995
aF-0.007437691057864947
aF-0.10267232727832404
aF1.3813606995253884
aF0.23081099180491538
aF-1.8551131978760342
aF-0.9743367874846397
aF-0.83924522159025006
aF-0.64510046517222719
aF-1.3996948748477769
aF-0.27720472445888678
aa(lp65
F-1.3848784548636535
aF1.2862281417684636
aF-0.23928632928196131
aF3.5409844633618404
aF0.59673736226440477
aF-0.042093763645682659
aF-2.1533610639373215
aF1.4630041003851653
aF0.3812970868404828
aF-1.9000911701228618
aF-2.5451989389887926
aF-1.7236052325069555
aF-1.7843596328754354
aF-3.6015489259469624
aF-2.2586800563761908
aa(lp66
F0.51209801524943066
aF-0.05388256010721091
aF0.82026398789686028
aF0.50100195906783984
aF0.7063528426167931
aF-0.37116663534149202
aF-0.40838477173162946
aF-1.5931515390800839
aF0.025292314181513245
aF1.2407433436285213
aF0.9607437709079657
aF0.5671842761849345
aF0.70373034773094811
aF0.73500395491867376
aF-0.8545404408430034
aa(lp67
F-0.395252083643307
aF0.029404826536776604
aF0.70670815893859895
aF0.25372231736920914
aF-0.17868541693338927
aF-0.89880043155151179
aF-0.74212281403106328
aF-0.87672949802386557
aF-0.17553625417860944
aF0.004047418200738854
aF0.52397167929107691
aF0.86757625136083927
aF-0.23817689822591864
aF-0.28037901159726364
aF-0.40220106472784639
aa(lp68
F0.84409493094368238
aF0.27602718613284838
aF2.2486036889186658
aF1.8456736477804183
aF0.21542784672743814
aF-0.01327893528188028
aF-2.0279085153644067
aF-1.5431328760574379
aF0.94558945335424693
aF1.6894954515326031
aF-0.68123802868424854
aF1.3992339245053969
aF-1.5192634349718235
aF-2.1704724551029613
aF-1.777682746402693
aa(lp69
F-0.8638529942163593
aF-0.060467583310676469
aF-1.5269319458833372
aF-1.0965106883037874
aF0.81544452548741198
aF-0.62286175153446133
aF0.47926049933986559
aF0.99097949308352606
aF0.2174803279941494
aF0.15298537902465539
aF-0.5156298455656686
aF-0.99684459062065878
aF0.69970339586431096
aF-0.63407627179451187
aF1.4262484387198195
aa(lp70
F-0.506195026366694
aF0.036476583644249314
aF-0.75379363827278423
aF-0.41950422778181523
aF-0.173523774112014
aF0.23404100708494399
aF-0.74393692699493741
aF0.067419372492978039
aF0.27213389855830356
aF-1.1087164078928271
aF-0.9382446337317627
aF-1.1269315247504192
aF0.25721659323252638
aF-1.7752052514589576
aF1.4754443832339967
aa(lp71
F0.037569279801776677
aF0.34501761728224362
aF0.51537805617250854
aF0.18005675312621242
aF0.53882705454859314
aF-0.65332242714460576
aF0.1279470187058368
aF0.26766506186828876
aF-0.47955954423234243
aF1.1524211098912722
aF0.083902629972042259
aF0.19600200005524498
aF-0.056976458839583181
aF0.94186270442701858
aF0.014204859255703162
aa(lp72
F0.61890666391054672
aF-0.80512206725019764
aF0.31655965220658761
aF-0.76071177406055424
aF-0.18983772695138532
aF-0.61066266523072477
aF-1.1620880947089278
aF-0.17182322447673165
aF0.13019744368637598
aF0.9098662286808179
aF-0.30224916296464494
aF-0.48488381987761919
aF0.8056417526837506
aF-0.44781497973227946
aF1.8423312046764457
aa(lp73
F0.31744067368339557
aF-0.041284753319250356
aF1.7657265900493742
aF0.72862012559313483
aF0.43958883017926287
aF-0.60644693821818318
aF-1.1452126454973035
aF-1.4836576826254491
aF-0.88405159863809279
aF0.38748676660840436
aF1.5601175014739335
aF1.0648065170886249
aF-0.47349687370637517
aF1.4768289541858748
aF-0.74708875421847043
aa(lp74
F-1.998129636744618
aF0.12597034572299617
aF-1.5078925451694287
aF-1.6997301680298316
aF0.50613150431225928
aF-0.57898411793484761
aF0.092286113668756983
aF1.1078845426903088
aF-0.16048282294011285
aF-1.2214567945192432
aF0.11346402180237111
aF-1.8050466644995631
aF1.5021961644410715
aF0.6944084273960941
aF1.9353820365654961
aa(lp75
F0.93078395716343709
aF0.32859344588150918
aF0.51760317203349726
aF0.93436790694961414
aF0.31693233863970294
aF0.19439688434579036
aF-5.3089171576440322
aF0.17323978580810026
aF0.65491853549456613
aF-1.2739289558272906
aF-2.9512451715991963
aF-2.8633065231336441
aF-0.069972741473498856
aF-5.5056994917919839
aF3.573845083399716
aaa(lp76
(lp77
F-1.2792981782531039
aF-0.84252484138308792
aF0.46702712004713998
aF0.43040501456289193
aF-0.03502188319623193
aa(lp78
F-0.75615112320298172
aF0.35566127811235937
aF-1.4350132827084883
aF-0.58110728664944455
aF-0.97155370326982726
aa(lp79
F-1.0920660257302253
aF-0.73995559080625284
aF0.59727185045438458
aF1.3047516021418961
aF-0.5525686049789913
aa(lp80
F0.48977390276881211
aF-0.041205123734086996
aF-1.9391342359379766
aF1.4195359257612048
aF-0.6266223138998307
aa(lp81
F-0.66705526417903271
aF0.16098438375159083
aF-1.0670545669896498
aF-0.68685915385973439
aF-0.9089778753079274
aa(lp82
F0.18167333121425192
aF0.56081304241747776
aF0.10413566829652122
aF0.16267684588762349
aF0.24188548486641978
aa(lp83
F2.1764803579174177
aF-1.3820172358441365
aF-1.3476700087683298
aF-1.5853302546710493
aF-0.33759285992762522
aa(lp84
F-0.30255921223328575
aF1.3992153344457292
aF-1.220078188648605
aF-1.3688830134867565
aF-0.20227978000909794
aa(lp85
F-0.7992753038710888
aF0.31411498010702055
aF-1.0967344289307994
aF-0.38537160166601608
aF-0.93526081902922342
aa(lp86
F-2.0194409554119694
aF-0.82344495980161658
aF1.4567952914248947
aF1.2051248236585486
aF0.035300055771684602
aa(lp87
F1.1459960063386563
aF-1.4056401455558349
aF0.79982918407462245
aF-0.77250260039872276
aF-0.31432024388962027
aa(lp88
F0.60740960967909252
aF-2.158772839339159
aF0.09148993403630061
aF0.45225043513868046
aF-0.61205050696566865
aa(lp89
F-0.34090604776938793
aF0.84949196379685477
aF0.65877801817104364
aF-1.7197402021588757
aF-0.6091115029394355
aa(lp90
F1.775016627032076
aF-1.98635258219092
aF1.6497561443615629
aF-1.3923941211553432
aF-0.40998991953099012
aa(lp91
F-1.9939054178138871
aF1.3470709205230031
aF1.095516305919058
aF-1.5660935442717514
aF0.078994198680720523
aaaa(lp92
(lp93
F0.59347086156915041
aF0.58770229876331614
aF-2.4312604580622823
aF-2.8124233222612753
aF0.8679362556750303
aF-0.68969632438400297
aF-1.8917534384719108
aF-0.81292775226521363
aF0.81195357965201698
aF-0.36695370201504701
aF0.22825332530700404
aF0.58118349712809414
aF-1.3089636549683659
aF-0.88630406214568491
aF-1.3918171098906846
aF1.2632322509732365
aF1.5600788644256243
aF0.029553778997482794
aF-1.4336823049338414
aF-3.6383280811139449
aF-1.3044275829719136
aF-2.0951663069317443
aF1.2786519825379794
aF-1.1488240070604259
aF-0.22855205039848203
aF1.9562012726223617
aF3.1425028619620945
aa(lp94
F-0.89918783792791945
aF0.78686920268685079
aF-0.21668058065523643
aF-0.31150681198004337
aF0.42815934803517924
aF-0.77753280154567961
aF-1.6136810629056524
aF-0.065420418608585218
aF0.60340588709930953
aF-0.20251008429475345
aF-0.75910631767702352
aF-0.56940825733220879
aF0.85897903795776676
aF-0.79590764524569901
aF1.8449032738813893
aa(lp95
F-0.79173846684644933
aF0.24412393083021511
aF-1.3105079122823085
aF-0.37528655242528053
aF-0.57832750104368125
aaa.