(lp1
(lp2
(lp3
I0
aI1
aI0
aI1
aI0
aI1
aI0
aI1
aI0
aI0
aI0
aI0
aI0
aI0
aI0
aI0
aI0
aI0
aI0
aI0
aI0
aI0
aI0
aI1
aI0
aI0
aI1
aI0
aI0
aI0
aI0
aI0
aI0
aI0
aI0
aI0
aI0
aI0
aI1
aa(lp4
F0.99999847884792503
aF2.4363742064377845e-08
aF1.0569722921076602e-10
aF7.4707263884267622e-09
aF0.00048453521919645436
aF0.00080594870006382496
aF0.99995853720587746
aF0.10888007961295174
aF0.0066470039129342745
aF0.99999831142294959
aF0.99999427209814384
aF0.99651429401313651
aF0.008062807758909071
aF0.00031672157743750672
aF0.99999990951071704
aF0.99992320067913476
aF0.0091755349996232617
aF3.5914586882082045e-09
aF0.99970986718409471
aF5.0158159787685007e-08
aF1.5938788408972256e-08
aF2.4267091993393984e-07
aF5.9087134868089805e-05
aF0.99993720769856864
aF2.2695005863686688e-08
aF0.00070886512972913383
aF0.0020469404541514778
aa(lp5
F0.99597457001269285
aF0.0001925509431759473
aF0.99999759775762265
aF0.99858932514239018
aF0.99665386124162147
aF0.0056746293709304587
aF0.99858206013655071
aF0.99999678783850032
aF0.4000819760817087
aF0.96247198852176685
aF0.0060653744723826383
aF0.000854195309948088
aF0.99998426539774965
aF0.85594623572933648
aF0.9988470119729379
aa(lp6
F0.99848776233480574
aF0.00072985608582109348
aF0.0019184461324050414
aF0.001711614372849331
aF0.0032689205798343023
aaa(lp7
(lp8
(lp9
F9.4734288682294423
aF-11.721224137297751
aF-10.166922559536282
aF-5.8095844418774458
aF7.1076681146453344
aF-6.4297872314716891
aF9.6816158653856714
aF-5.0439159035170729
aF-6.7908976515996589
aF4.4025747037768523
aF11.620676039820314
aF23.037024921966701
aF-13.549907254463372
aF-6.5027653000976118
aF4.7646157163736103
aF7.2834792921100107
aF-9.5892012081045443
aF-18.680651503323105
aF11.293612799651154
aF-3.5456145497084259
aF-7.1938534730753103
aF-13.140751334480985
aF-9.1297663331179102
aF10.889624763769685
aF-27.546972677136324
aF-6.7679826096564613
aF-1.4933568911068731
aa(lp10
F11.229300990615661
aF-10.670843407519719
aF-7.6119606531592625
aF-7.6578353081233681
aF5.4862481703036545
aF-3.1704446495439011
aF-0.047925388446269417
aF-3.1843464388289209
aF-1.892514742068147
aF4.4899190405756588
aF3.1790213643004095
aF2.7358510850236919
aF0.3912340194526599
aF-4.797456635640442
aF4.4078712894223724
aF2.2515293838288235
aF-9.1561027615406925
aF-11.449451473494388
aF2.2397278673797065
aF1.1186315584248419
aF3.7279799795660407
aF-13.91431747929591
aF-9.9289798605010038
aF-0.29979600988691812
aF-7.2615667604504086
aF-9.249381580276351
aF-2.4972091715881786
aa(lp11
F0.98944258488275982
aF-6.8918796785489862
aF-2.7658260956334262
aF-1.3499111385313796
aF1.6757444086844944
aF-3.3068958410317268
aF0.69047101334952021
aF-2.1218742309644449
aF-1.5974193660551055
aF0.44528650776579226
aF3.4903958963794715
aF3.1883146129968378
aF-4.5226892549729607
aF-2.500372133825564
aF-0.78682672552245481
aF6.0443221868384258
aF-0.74738586177847821
aF-11.420020369430755
aF3.2064650829417318
aF-0.30291306959715902
aF-0.40484358181888203
aF-3.3001188031124071
aF-2.7805209458890805
aF3.4782648672793224
aF-2.3840681672537256
aF-1.105149761617426
aF-1.2117008926035742
aa(lp12
F3.9499180478654843
aF-4.6804323484151018
aF-3.7641260920936768
aF-3.4901829487103164
aF1.4254013555676379
aF-1.5076487471882589
aF2.8714364433878186
aF-2.3986218820539724
aF-1.2592204703019505
aF4.41384366318362
aF1.9009124530523553
aF-1.9467261986580355
aF-2.6050095987040089
aF-3.8392273912257955
aF-1.6316788685098378
aF-1.1244189569639604
aF-1.5409980953010534
aF-7.3703086484604379
aF-0.665478762018482
aF0.55724489289987744
aF2.1365270554644105
aF-6.4081171172341058
aF-3.4228854009985996
aF0.48506049010321589
aF-2.98155968768874
aF-1.9786982021464394
aF-1.0924041513770073
aa(lp13
F0.04314786836520848
aF0.30134139687925671
aF-0.01549488787449557
aF-0.2017980515970971
aF-2.5133527670085325
aF0.29395843988933157
aF-0.015935732985503732
aF0.26463695996375269
aF0.59627607993379983
aF0.22618521924493387
aF0.38025108556553988
aF0.3058223344818955
aF0.20504736983384575
aF-0.32233685131009809
aF-4.4881485969114667
aF-0.14723874291189343
aF1.0322014257410621
aF0.19913535309677569
aF-0.8679591216502387
aF6.8558009471837087
aF6.5754722940266754
aF0.78672423867991081
aF0.36234985211223153
aF0.35021695845728218
aF5.4064383070985649
aF-0.22607108495678069
aF-0.13678086312331972
aa(lp14
F-1.397258182120408
aF-1.9713002351803044
aF-3.5918220830583709
aF-2.1279915245673156
aF-1.8681035487197157
aF-0.13330187503061261
aF2.514922203062457
aF0.021010785392667264
aF-1.6449923741094639
aF1.3833355608789539
aF1.6423072677281734
aF1.6298734818345282
aF-1.3103523251179259
aF0.19426201422673867
aF0.66178983953844228
aF1.2520520768853671
aF1.4774453655125546
aF-1.6578467533244832
aF-0.92113515826889913
aF-3.9682392833849636
aF-6.8182551286118285
aF1.5687835585359517
aF2.0594335218905875
aF4.4584015021184076
aF-2.7854879985538221
aF0.34404511264014298
aF-1.3709359308878715
aa(lp15
F2.0505618930929801
aF-0.72340866036558804
aF-0.028876910040412339
aF0.10726887759833287
aF0.44654645686736821
aF0.40454366495888711
aF1.5565856327551504
aF-0.96409891001800996
aF-1.6443419023166042
aF-0.42988629690518659
aF-0.1609441938270795
aF-6.2444150288701161
aF-1.6409665143659296
aF0.10931814600260026
aF-9.1300922484960072
aF1.3728980785033107
aF-1.4213202176569215
aF0.036277220427154117
aF-2.457382619077483
aF-0.22991600824394876
aF6.5667832751611677
aF-1.4078764736861653
aF0.45368219957994843
aF1.6046658660114574
aF9.0511977902407637
aF-2.169476624959402
aF-0.58378607926197745
aa(lp16
F-2.8645812553910086
aF1.3538145645789934
aF-6.4568960918474927
aF0.60934262547689177
aF-4.8738025884628611
aF0.50380876987877765
aF0.86892718025711191
aF1.1627219480205748
aF-2.5430541526273331
aF2.3924697987232104
aF1.5549731007764238
aF2.7149589206212394
aF0.30974020162613763
aF1.4661461492024483
aF-0.43347205865304839
aF2.9566967313453749
aF2.5936845789284795
aF-0.57461768980724104
aF0.010644077465789107
aF-1.1424614049689188
aF-2.0020110399543878
aF1.0684401766368634
aF1.11712582244807
aF2.6968250051091833
aF-1.3555381269176887
aF2.5449017919964882
aF0.16720468696331481
aa(lp17
F-12.495531165039401
aF5.4015109919963624
aF-8.3416931870363467
aF17.870305261301613
aF6.1032502373211335
aF2.9607236652335924
aF-0.62915016800716761
aF-4.8928422661676416
aF6.5358431487035089
aF0.36760597553246394
aF-6.5970680097068701
aF-15.628340919131047
aF-12.50900131503572
aF2.7259804893687831
aF4.625109920796846
aF-7.4999140805043716
aF-2.2540046746918487
aF6.5298890026634195
aF-6.5280405284615348
aF-0.54915098488239211
aF-0.90447828815539544
aF5.1287515155608689
aF12.301995650281695
aF-12.243345629603352
aF11.118201716576706
aF-3.9687658622432216
aF-11.982589144269149
aa(lp18
F1.2277212206970138
aF5.7910421961054084
aF-3.5925669010101018
aF3.0959276075722286
aF3.5305132727756132
aF0.24978866670298941
aF-0.13871577987232361
aF-5.6765887254837297
aF8.6707897405423378
aF2.457389375643015
aF-1.5177025601328522
aF-11.512375761262772
aF1.4051232512637277
aF2.470825947671802
aF3.8136652716215926
aF-7.7227715751276351
aF-0.24958587046843031
aF3.9988266839219171
aF-6.2134120731678957
aF-2.9437734736367083
aF-1.8244678118507902
aF2.6604447604666408
aF1.7680429228140908
aF-15.894014402066093
aF4.6361162084019121
aF-1.3454570643578556
aF-0.12519783898874309
aa(lp19
F-5.8104970467910722
aF1.4805506233333858
aF-5.2772431585700836
aF6.5454026261316605
aF2.282360338673084
aF1.7862066495329625
aF-1.1553046133657616
aF-1.3495341821112112
aF3.5138555243265444
aF-0.93736663512934593
aF-5.7294832788775052
aF-7.835707039018077
aF-5.4937245552868372
aF1.4896891885152941
aF3.1243423640560497
aF-4.4682117946892088
aF-1.4412001795741283
aF2.547609545770273
aF-2.9233915137489235
aF-1.8500611675324428
aF-0.66653690455834835
aF-0.19504257166038783
aF8.2111232553887952
aF-3.6671066188040546
aF4.0138825144162507
aF-1.1017759549238659
aF-4.5635887459792359
aa(lp20
F-1.8956930024684544
aF-0.35510274694253674
aF-6.4020183892935929
aF4.9743320039981507
aF1.4868861039280272
aF1.1968264328161755
aF0.27404189275787671
aF-1.7252330945249565
aF4.9089962134709042
aF0.44977355644168243
aF-0.65560370494068576
aF-8.0476021596245069
aF-2.2445579458532587
aF1.6399367369063098
aF1.419684847964344
aF-5.3087498907128756
aF-1.1155037277574729
aF0.91851793216126454
aF-5.6230918384604047
aF-3.5668134288325293
aF-1.9645276685587756
aF1.8990317984831253
aF0.62832921626873139
aF-5.8006999728991859
aF5.7150427532736776
aF1.8544419485453705
aF-0.73076485165806049
aa(lp21
F2.7292744728432945
aF0.71224228863115169
aF9.6761703840893993
aF-2.1581655558176851
aF-14.900818893245487
aF0.5511626725767923
aF-11.871334326231242
aF16.848853105051994
aF4.8929830496322628
aF-11.633478743872693
aF-6.8570072133873197
aF-1.8822241118789182
aF7.1598979691334694
aF-2.2764279937349392
aF5.8090570273023845
aF-9.4031009336077052
aF-7.2854296545129884
aF6.9373267541409458
aF3.3995173213385081
aF-1.4234827076482792
aF-0.53127640764205064
aF12.912658923103862
aF-0.39561829912660823
aF11.613849075465149
aF17.645995642592677
aF16.691479481207306
aF10.177956228353189
aa(lp22
F-0.38425158759486966
aF2.2168369898384204
aF10.473947811704452
aF-6.1295592143941855
aF-1.7707258256565344
aF-1.3828785660440406
aF-11.747686838064169
aF3.5003671496882358
aF4.1525402072331365
aF-3.6134444535620593
aF-7.2268783343628158
aF0.46220890013458982
aF12.021678269429696
aF-0.8618712933018351
aF4.6307014683234033
aF-8.5090409819376802
aF-9.087209773162142
aF3.557188440032232
aF-0.13261054720038268
aF-4.1681701160461095
aF-0.37461816185151126
aF1.8453622616205203
aF-0.80027212330323627
aF-2.9844881923923245
aF4.6539168256778449
aF0.29812757222437686
aF10.350008590957733
aa(lp23
F2.0363035661309254
aF1.5328408530962034
aF7.5446516283694542
aF-2.6376324427787239
aF-5.9929235068777835
aF-0.25194420193123862
aF-6.8518805247350185
aF7.5274757360513727
aF4.8556040780350527
aF-5.7742058418337949
aF-4.2771020141820557
aF0.14119843655549097
aF7.3347319968218585
aF-0.80640702440112022
aF2.6194837341176784
aF-8.0369338431482458
aF-2.501866468442806
aF2.5986124882496875
aF0.14766599115994417
aF-1.4384721946402164
aF0.18024119009698686
aF11.903291339255949
aF-0.64100656944221535
aF4.4137884739291229
aF12.317554097170026
aF9.3886217736842514
aF3.4520986412357004
aa(lp24
F-1.0165845776773035
aF-0.8509230290286437
aF4.8716327034769469
aF1.0361516385109812
aF-4.0454196749294029
aF0.20343550455181647
aF-5.9667613109499973
aF9.0802529980016864
aF3.7160319218405538
aF-3.3659942417502391
aF-5.1691806995235652
aF-0.33443548166261056
aF4.4703360971132495
aF-1.2944914638267653
aF2.9845889901142537
aF-5.9657432822658301
aF-3.9660847831744039
aF2.284564697119738
aF0.92787322078754386
aF-4.2113008813957089
aF-0.38761411520869132
aF1.3856711608335375
aF0.30701463561490561
aF0.98986308973736292
aF4.5798576044847632
aF-0.092551227412505391
aF6.0754492845164823
aa(lp25
F-1.4259607194848039
aF-4.0593532313112384
aF-0.29807049731535024
aF-4.2673178558972946
aF-1.2117258695765882
aF-1.4602916141887767
aF-2.9156651510619018
aF1.0528774770035545
aF-1.5007830514827292
aF0.50432047707043237
aF2.1550745379062874
aF1.5367394149089044
aF-0.85073337318195252
aF-2.540144751166391
aF0.096599346780905385
aF0.59895961004315612
aF-1.3285766448233336
aF-0.53261194872352502
aF4.2056341304551417
aF0.62841796978652065
aF-3.8070450574340042
aF-0.99350866858986031
aF1.0542847465844172
aF5.14742259804102
aF-3.8386822185579796
aF0.74817280039159562
aF1.613100124641611
aa(lp26
F1.0751930057734862
aF-0.66330960689335949
aF0.12564841967295362
aF-5.2246092180279726
aF-0.69556373292097884
aF-1.2532641915810003
aF-0.47236742993355979
aF-2.1543405356998244
aF-0.88514190909889767
aF-2.0634580751682403
aF0.51409325017592988
aF2.5910872701624146
aF0.55732016925397942
aF-1.0961053209700113
aF1.2781603829431485
aF0.038176885318923326
aF-0.7073295520454872
aF0.069163861604138233
aF1.3378133790850486
aF-0.060644476048023317
aF0.55151664567435643
aF-0.22439622612083943
aF0.19055525573312851
aF0.86940781055175465
aF-1.3310986386765573
aF1.0179080499716691
aF2.0642728337648268
aa(lp27
F-1.0091439398176396
aF0.32035432264622976
aF-6.0433860350015829
aF-0.35974944958131494
aF0.09620659203120184
aF0.29690877143368499
aF4.0720003195851797
aF-2.8578317080289222
aF-0.83497019833739416
aF1.0667390951919205
aF1.5838855675201666
aF1.4792916862412491
aF-3.6719417269099281
aF-0.076967590061946992
aF-0.81161607993499962
aF-1.2221479254199445
aF1.1896093287637264
aF-0.95395196493822931
aF-0.23857676301988892
aF-0.57842194555278303
aF-1.6686413409132468
aF0.16331766109414353
aF-0.31445675564507242
aF-1.4395974358613948
aF-4.3192401757604379
aF-3.6209776307549397
aF-1.2972080167741942
aa(lp28
F0.64370956510753463
aF0.46347943614304948
aF-0.44596110217428342
aF1.0320944760018709
aF3.5243337156534378
aF-0.60002876045164155
aF0.61772517731574883
aF-3.0138724687657925
aF0.97127737786024526
aF1.1900403548250047
aF-0.55261854325272775
aF0.74666890617435022
aF-1.7205347173659276
aF0.050938952701352264
aF0.45559501177211198
aF-1.7578996752604343
aF-0.24405878110677318
aF-0.061901133889305508
aF0.078714153039976628
aF7.1433383351557058
aF-1.0563173920358506
aF-1.4218981652529914
aF-0.44364540637936778
aF-3.4612275911679853
aF-1.9409206514060331
aF-5.0944651649127559
aF-0.70203279518779549
aa(lp29
F1.6369086051312169
aF-0.30472561844579887
aF0.20369070726582719
aF-0.26475645433123585
aF0.305530658547009
aF0.32808274818975458
aF0.51503672200440043
aF-1.229868536088002
aF-0.77873023768076499
aF1.3145211291474539
aF0.45502648302695781
aF-10.500508019715546
aF9.3345115711822828
aF0.36901768461463619
aF-5.5524782274395719
aF1.0562333602223086
aF-1.7188064374818237
aF-1.0654111245357047
aF-3.7832041062591788
aF3.4417740476475998
aF7.0323254580812726
aF-0.46481506841647796
aF-1.7038722348611435
aF1.367607279427568
aF7.4637133016670205
aF-0.73526162913553672
aF0.1238815924698257
aa(lp30
F1.4897318397655053
aF1.3051091611544954
aF4.4099505120774838
aF-3.5067671286248765
aF-1.9232166592056172
aF-1.5345851801612798
aF0.21511156126717357
aF1.1783265916702144
aF0.12529727192482382
aF-1.3334493566521484
aF-0.66660236527251848
aF0.4925208930014906
aF1.1646099587323104
aF-0.36387249542539574
aF0.1538267502703119
aF0.61633770144314215
aF-0.11647493122098344
aF0.387469036931398
aF0.71336096221035028
aF0.043670223827818863
aF-2.543459762167374
aF1.0733567034818443
aF-0.24369547619362009
aF3.7191151915244758
aF0.78452485099304514
aF0.85288108160622567
aF0.49232457600413937
aa(lp31
F3.384431417087312
aF-0.22250376072358774
aF1.1435510308167474
aF-0.64756390666574992
aF-0.42958881528937159
aF0.86239012179727137
aF-0.30216257803027347
aF1.0232345933418718
aF-0.37302368462274954
aF-1.1949622653541558
aF-0.094470683238108255
aF-13.429105705393333
aF9.8264176122331808
aF0.30479348989279137
aF-5.554284708393344
aF0.65540115717596881
aF-1.8364554882629398
aF-1.1177751494223793
aF-4.779603687970881
aF2.3602059274757945
aF5.9898323197461467
aF-1.6647980821807125
aF-0.29353456243083365
aF-0.71847740568990692
aF8.0770643802765623
aF-0.2277052867788425
aF-0.5173175798922377
aa(lp32
F-0.88510783959441031
aF0.080789178418359961
aF-1.3887928871676996
aF-2.1025043722605155
aF-0.42207512337428926
aF-0.83203214050595053
aF0.054603943575756181
aF-3.3345243974604872
aF-0.47547588347216097
aF1.6328145231032549
aF2.7192442769085319
aF-2.1784535298112555
aF0.63172634683345785
aF0.55491419778694051
aF-0.35625906976196919
aF0.18270725133999227
aF0.89944179827676207
aF-0.60327851036170954
aF0.27475337310020143
aF-1.1810442114980233
aF-0.44885928814541765
aF-0.97369384146589766
aF0.2806922975309355
aF-1.7192623701441376
aF-0.30704596682204754
aF0.20516351683962042
aF0.0082166444183558174
aa(lp33
F-17.625256255405915
aF3.048390213571198
aF4.2894704271007891
aF5.5173618339348387
aF-8.1105076579966457
aF0.70292915653489707
aF-4.8830194360718329
aF4.1535413887507051
aF5.2584724658960864
aF-3.3186563786315557
aF-3.9991144398931531
aF-13.855760347904397
aF6.6490335490061794
aF1.0475654495567566
aF-6.4794687196830658
aF-4.2939932588826712
aF7.8653368539619022
aF3.903467688389803
aF-8.1601463994580961
aF7.3172907707656112
aF4.0766146429858532
aF12.595327789586353
aF10.847184968582205
aF-3.4853972474834318
aF10.115273232041588
aF6.4698700611835873
aF0.63766157912746224
aa(lp34
F-16.294538261771628
aF3.0124688541674915
aF5.3449809327528941
aF8.3830126234735314
aF-9.8065842100334883
aF0.20932591867066916
aF-7.9727749954297993
aF5.5830205830405282
aF3.8572758712530515
aF-4.1235602443160211
aF-5.7395272435437876
aF-11.457955924417856
aF9.6807325149720658
aF2.3608260218850674
aF-4.7545751173801953
aF-3.2192333909040776
aF10.600396856330487
aF6.0787019756344636
aF-7.0213114087076161
aF7.9387611126709592
aF4.7841494667711482
aF13.176581372581939
aF6.5346142207683524
aF-5.1134272200450441
aF14.632740814980147
aF7.5759077323089823
aF0.86936303282641336
aa(lp35
F5.5703735316611187
aF3.0464293696011633
aF2.7501564669009149
aF-1.5074025465372221
aF-1.877797896831539
aF-1.1739632361095573
aF0.32187691623436832
aF1.5776459878994002
aF4.2107692506098591
aF-2.1182353535797822
aF-1.7547423381375495
aF3.802310405060779
aF-1.3499943071598883
aF0.67572383942291514
aF14.475091115530738
aF0.51998596021191557
aF-1.8465430956611408
aF5.2588288467184032
aF5.1584379968567688
aF-14.009578150732459
aF-13.405899979294515
aF1.1183613178296545
aF-0.81280394164655179
aF-1.3505712521996591
aF-2.1435867796112289
aF0.50771177642168697
aF-0.17315120295515268
aa(lp36
F2.5279583578344025
aF6.0524610994767016
aF2.4732948785500111
aF0.55265391096607053
aF0.78620257670082827
aF-0.050329219679910324
aF2.0936547300291379
aF1.7028022242220078
aF0.60139991809473692
aF2.9276742343544142
aF-1.39919034328855
aF7.1843310581778637
aF-1.0813817282287832
aF-0.12863794699610981
aF13.282531461621545
aF0.98439899272630393
aF-2.112256250183862
aF5.6224845466473585
aF2.9500991518712341
aF-11.707728518883432
aF-10.596189634310996
aF-0.76692444071972654
aF2.4199241113861207
aF-4.5258445786782335
aF-1.477331743420788
aF0.91112186912353532
aF0.35005919021172127
aa(lp37
F5.8292427097393418
aF-6.42756897218867
aF0.74028139984896801
aF-13.279144181023216
aF-4.9969154950936971
aF-1.5899589761961144
aF-0.20455011239618134
aF2.1811003335328212
aF-7.2136501183833825
aF0.99621591075345239
aF3.7485025377465626
aF2.2339274522234778
aF2.9453627741822275
aF-1.9554532017005126
aF-7.6152979382918469
aF3.6259806331848599
aF-0.54108734996615548
aF-7.4898449384658949
aF3.5995150876422173
aF2.2187742186809918
aF0.91589740104100303
aF-4.731453948803563
aF-8.4617740556194612
aF15.519005982378049
aF-3.5507394447631553
aF1.4610585063597796
aF7.9241673648874711
aa(lp38
F4.5583908220094811
aF-7.9722784788188505
aF1.2408185333463626
aF-13.78706157550725
aF-5.6041755520765122
aF-1.2097676109833591
aF-1.0989217643939362
aF7.5606866073142456
aF-4.8731931416836716
aF-1.3949475188876284
aF2.3290082989565528
aF1.8412304899607987
aF3.5872180265672329
aF-2.4948313699244067
aF-6.673170517220651
aF2.9558855443974279
aF0.69918467372881044
aF-6.370091562609991
aF4.1316886810609033
aF0.98539664976658659
aF-0.031740353334582867
aF-6.9708435771865558
aF-7.9798769822691336
aF15.085755853047216
aF-10.136040415864452
aF-0.024307759091799244
aF10.413351095347194
aa(lp39
F-1.9616950768817745
aF1.1061141718704157
aF-8.6464042388570874
aF1.6667423231025196
aF6.9377107598936343
aF-0.022837007306566862
aF9.0133445103315246
aF-9.1859004585918562
aF-5.5087291915733694
aF7.7190853583730981
aF4.5685305116140071
aF2.43806979613047
aF-12.735585283823006
aF0.82566824008114903
aF-7.5862359895023923
aF4.3937995171444024
aF8.2228523012357471
aF-8.2802863384470786
aF-3.0306410063880467
aF1.5330247443770317
aF0.69340415214094342
aF-2.578595662912468
aF-0.11483279193211746
aF-4.119149073702892
aF-3.4321919011779149
aF-7.1283779624124719
aF-9.9168344776884751
aa(lp40
F-2.1314862621723578
aF-0.19818782287087661
aF-8.7245072796752083
aF3.222397712713772
aF8.3298968990256093
aF0.13693055048052924
aF9.7490477639850734
aF-12.141411490382968
aF-7.5824685164934493
aF9.7503567538711859
aF5.3477657599767729
aF0.053490064425477019
aF-15.007264651887775
aF1.6383014781336966
aF-8.6305153827839032
aF3.1904547304997961
aF10.409047604597204
aF-7.3645315853775042
aF-4.5726295476441328
aF2.5919912721311782
aF-0.22416170453608264
aF-5.7336574012747361
aF-0.33000992328639756
aF-4.6331579376513119
aF-7.6555649640002246
aF-9.8031355787378907
aF-4.6441673350627219
aa(lp41
F-13.23807639087236
aF1.5316630190573579
aF0.22397068113600307
aF2.044543696061937
aF-4.1149519852790553
aF0.60386751131702265
aF-0.39099081931184337
aF-1.3307593869154486
aF1.5415527420115118
aF0.22460369541525604
aF-0.82069131361125391
aF-4.4306882360863913
aF-0.010691735600605398
aF1.1780979614449623
aF-5.4768607600047527
aF-1.5927264154632461
aF11.968282426864439
aF1.5764387754180518
aF-3.9324998792149817
aF9.8779453032515523
aF6.5709095006439906
aF2.5820665290419247
aF2.0278125792110751
aF-1.9766302878518625
aF3.4047123921992917
aF-0.35400272737584332
aF-0.95405930354680502
aa(lp42
F-13.901755838178307
aF-0.10505983391857671
aF0.98368976145555631
aF-0.47108389819883373
aF-3.5867649616337509
aF0.72246814658410918
aF-1.4807052460066532
aF0.34649255582602756
aF-0.49946910432678476
aF-0.56408833579063877
aF-0.87981207222451763
aF-5.1639326778770318
aF2.9876160877289766
aF0.10306021725683855
aF-10.042131896884655
aF-1.0793067831218111
aF14.053508824914347
aF-0.0072256982222055621
aF-0.57367352959557549
aF9.7388267117050518
aF2.0786994544229067
aF1.7573957028998222
aF0.34894355234718721
aF2.3379561302243101
aF7.5475399942695187
aF-0.22694333721153501
aF2.9644749051504951
aa(lp43
F0.81629088670672656
aF-1.4587456594529831
aF0.57094200619072111
aF-2.1659117022964809
aF-0.086752314135405476
aF-0.64057926479261673
aF-0.86672046812759007
aF1.5881754508052126
aF-1.4029810017104762
aF-2.6097292396915348
aF-0.62952684099066736
aF4.237064771056148
aF-3.4058026817365583
aF-1.3550905864090879
aF7.3527422064745727
aF-0.20260535937220378
aF-3.7476644070839304
aF0.29722596236414162
aF3.7919020084296724
aF-4.3776014071983891
aF-5.4788505109956311
aF-0.041797738408022533
aF-1.9032666380989156
aF3.8368907478489707
aF-3.9888827173173205
aF2.6693803397914069
aF0.97022712499298402
aa(lp44
F-1.5832551170077633
aF1.5881428806708033
aF-0.79981247824737822
aF0.16885721425333922
aF2.5722437185220994
aF0.0095603972061690783
aF0.18267803670331151
aF-1.2926181325322821
aF1.145833609702561
aF1.5849311227237577
aF1.2587445350658657
aF2.7470990201934962
aF-4.4805324300745601
aF0.78322770860489555
aF5.6293588547293352
aF-0.1599975574444033
aF0.23645298545186619
aF-0.8092516547141817
aF0.094192304586351194
aF-6.6700867693761916
aF-3.965928090242425
aF-0.50223800287463749
aF0.79399962241041977
aF-2.441377538617008
aF-4.099705290096316
aF-2.4748709709296897
aF-1.4573537146327749
aa(lp45
F-2.7344659737312762
aF2.7328341495154129
aF2.3038306836908005
aF0.89014552518551415
aF-2.545224547439116
aF-1.0337032074164292
aF-2.952027688220435
aF2.1335471695830748
aF1.9628574129439675
aF-0.1702540110310572
aF-1.4444637908565801
aF-1.9626039519106078
aF-1.2298552509643927
aF0.6155341324805973
aF0.83217484810772313
aF-0.24040595809018694
aF1.1417617768500032
aF-1.8331947493396761
aF-4.5615929238853399
aF-1.3779013899736403
aF0.13196216589139217
aF4.3236917949739651
aF2.9320874716209078
aF-0.11698608504377563
aF1.763001569708893
aF3.8039896289626056
aF-0.44035286139187241
aa(lp46
F-1.3547495331613537
aF-1.7811271765681147
aF-3.4539773851990585
aF-0.36079200220062185
aF-1.9402553085580738
aF0.4008322493785354
aF-2.2563071657388081
aF0.24046801150514657
aF-1.8387023206873057
aF-0.58616098357633495
aF0.0087058274671047136
aF0.40436265718749881
aF-0.21225412777950725
aF-0.24459413152182891
aF0.80133582330667086
aF-0.8679073232522988
aF0.64144711540888222
aF-1.2832577766881865
aF-1.0707665561704096
aF-1.1630027491122872
aF1.0565154250143589
aF-1.348641925975302
aF-0.17139403176880849
aF-1.0662847511213973
aF-1.2602813160660558
aF0.16041387583580388
aF-1.0071750657718359
aa(lp47
F-1.2813853408743978
aF-3.471354736727835
aF0.23056202605283863
aF-0.97351115961805945
aF-1.2276367466308442
aF-0.95996574826830205
aF0.27531613426638346
aF3.1025403809046477
aF-0.23511403955670754
aF-1.1978070177578839
aF0.39758149551740124
aF-3.9556885120182894
aF-0.079421927519329541
aF-2.4336488204252245
aF1.9803190377645359
aF1.1622603715710378
aF0.45560816605277932
aF-1.2225434904551342
aF2.2564092542824459
aF-1.215752064833215
aF-1.2690600904812073
aF0.082593205910215822
aF-0.19723456159188549
aF0.34142267075623195
aF-3.1255666306293319
aF0.14095022705445964
aF0.45086439093041619
aaa(lp48
(lp49
F0.45206032296102577
aF-1.7571693987768331
aF2.9134285771669561
aF3.2837470229405641
aF0.65439422412515647
aF-2.2968808075833027
aF4.196683062124154
aF1.0810731722353821
aF0.068857019029631095
aF3.8454645744312206
aF-3.6278815070640666
aF-0.3142843724630231
aF2.0131854065174202
aF0.68220077461524875
aF0.055066179912392904
aa(lp50
F-0.86051759773441594
aF0.99513143936494974
aF-1.8826835759240834
aF0.86492873704752371
aF-0.60338038914911063
aF-0.095826899320103354
aF-1.1869136969449317
aF-1.6594770472739893
aF-0.21595726132319112
aF-1.1151515564942116
aF1.5675174312157902
aF0.20716427493425307
aF-1.0217852044089677
aF0.66984608492881026
aF-0.41253648288519379
aa(lp51
F-2.0561858119862375
aF-0.32717281416879329
aF-0.7406142866500488
aF-0.10522735311863396
aF1.2362701662919737
aF-1.6026041765276233
aF-2.0856550928447843
aF-0.99085900670434679
aF-0.032992581611025779
aF-0.069556563210838085
aF1.7559605951119086
aF0.65128386414012029
aF-1.0361109319839927
aF0.33331278762438027
aF-1.1358338439077587
aa(lp52
F-2.4827719773734938
aF0.865729092666495
aF-0.69130668707652165
aF1.8279953421238568
aF-3.4863974152887898
aF1.9991921205852097
aF2.6787730592426575
aF-0.11964874900072323
aF0.3100486723788195
aF0.74999626843290923
aF2.5675958814797606
aF-0.49684464890292712
aF-1.507185244773148
aF0.12297675597446796
aF-0.3747790329494608
aa(lp53
F0.42278643838991481
aF-0.098177142651006952
aF-0.013382357234265216
aF2.5377642328325885
aF-2.4836498314017392
aF1.472438102487527
aF1.4929009414164713
aF0.57639073119893436
aF0.25739914600848773
aF1.6286926328274451
aF-1.4518546810435777
aF-0.84446153451555084
aF1.1023889826885354
aF0.77354860394240643
aF0.58893469029766277
aa(lp54
F-1.0978847456333667
aF1.086082621963258
aF0.81781367742109956
aF-0.30246947140509856
aF0.62565768974847069
aF0.48668023769653324
aF0.57084663921511758
aF0.54092887510825871
aF0.96695858158697012
aF0.06595660068176841
aF0.97257307551061645
aF0.19446930158997078
aF0.41989856835074563
aF0.59756600655701475
aF0.13535688430675741
aa(lp55
F1.853768104035322
aF0.31708097861476581
aF0.94868519910547766
aF0.047343151921593628
aF-0.1087291084228921
aF2.7461433477199129
aF0.39368661456316328
aF2.3886946392885298
aF0.34493568669733216
aF-1.8586470058089046
aF-0.76799785932221198
aF-0.68234378243159999
aF1.4098124955740645
aF-0.23288610034460266
aF2.041690657063743
aa(lp56
F-2.4120564552639148
aF-0.49029655911748626
aF1.0116197838684464
aF-1.7513735383503541
aF1.6511394251035278
aF-2.5060420140844339
aF0.6517671742935025
aF0.4042009901188941
aF-0.44177414346888749
aF1.9340881032641395
aF2.3746167013714476
aF0.18366937345902348
aF-1.4289377401519057
aF0.21384908945236614
aF-1.1231390837751436
aa(lp57
F-1.6142026101653764
aF-0.73513405551723487
aF0.015971988339506915
aF2.3916826066805994
aF-3.1540634333530644
aF0.80955965424488552
aF2.0393037025118899
aF-0.98387002467206408
aF-0.55925188725702069
aF1.9146004196599713
aF1.6334469961988247
aF-0.25921908351664685
aF-0.47581407114296259
aF0.68863216207365163
aF-0.36080533555566635
aa(lp58
F0.49718335183976287
aF-0.1074520009095908
aF0.96543588992518969
aF-0.26791224855287121
aF-0.78195627616576713
aF1.6683911811858936
aF0.59624465473495059
aF0.25289349334146377
aF0.1344922556027493
aF-1.427307886444787
aF1.5508087050400805
aF-0.93428649190270141
aF1.9511156113289712
aF-0.12093330039648262
aF2.0538721825939876
aa(lp59
F1.2050620284215301
aF-0.50869116196283071
aF0.74758065420010067
aF0.46253246917001772
aF-0.085796296071837197
aF0.19302689441438015
aF0.40035354926950961
aF1.4793976576487244
aF0.076926255922646417
aF-0.71458511853354612
aF0.13440123491938294
aF-1.2009307892294707
aF1.2975206166869728
aF-0.59621923739862903
aF0.87062361785289866
aa(lp60
F0.96165636191298742
aF-2.1243390488731104
aF1.7641696185696174
aF1.1716640814807091
aF0.70941221567249657
aF-2.0555962611852689
aF2.6527556100687111
aF3.1687672819678672
aF0.046818624955622813
aF2.2800509847559813
aF-3.3614014016626257
aF-1.3585291839761038
aF1.4601622384087032
aF0.51491290881334506
aF0.33626835626546919
aa(lp61
F-2.6255076376318325
aF0.74479640762595289
aF0.88498147570847019
aF-3.3989987462857547
aF1.619138343724442
aF-1.6977093975193536
aF-2.0273434999347222
aF-2.0479294399972314
aF-0.87880554925031018
aF-0.88067170012159202
aF4.1043668555365675
aF0.90915957683828863
aF-1.0219283487504731
aF-0.068016436725427051
aF-2.7019087696263058
aa(lp62
F-1.0744251728997067
aF0.53121412008999869
aF-0.20523747737293396
aF-0.6069523143925718
aF0.1519894292669966
aF0.4513304596062071
aF0.012948455829266198
aF-0.13213467897207595
aF0.42648985816490592
aF-0.41040365615484853
aF0.65465425162007085
aF0.30064460842859198
aF-0.29426432304116479
aF0.085721073056205813
aF0.74908823222336585
aa(lp63
F-2.478118563799462
aF-2.8389730615655844
aF-1.2436365645346696
aF3.5652512613343665
aF-2.0217344533102644
aF-1.6944668804901641
aF3.5401906461974586
aF-2.3045590306590054
aF-1.2971226403312539
aF3.4599888433100197
aF0.462399883853783
aF-1.7764382611484331
aF-0.12711537421412555
aF0.77314268124192587
aF-0.50627984042657492
aa(lp64
F3.1837745531331358
aF0.3166411578084124
aF0.85067343987847277
aF-0.27857063554771866
aF1.6350119471257014
aF-0.060140121286701716
aF-2.8385133116158432
aF1.3917242363963138
aF0.96989350274454411
aF-2.3761037285292881
aF-1.5934866913156005
aF0.17471768045801367
aF1.0304578116216334
aF-0.45519844972365064
aF1.3648495148066466
aa(lp65
F-0.13606274090658377
aF1.8611718381479398
aF0.085791588782651737
aF-2.9550206836866306
aF-0.31790025059034233
aF2.5642485700647137
aF-1.3774535828828021
aF0.92114370758176733
aF1.763283170530523
aF-4.0642637189985811
aF2.3402727223856599
aF0.73978211963025786
aF-0.62531975617419755
aF-0.57631647161009913
aF1.3593021832205283
aa(lp66
F-2.0446000275633756
aF1.124446964076238
aF-1.842631352506755
aF-0.027876660882496809
aF-0.024740278325475564
aF-0.6261466096247299
aF-1.0441643774604872
aF-2.8970612197738794
aF-0.58812990754601302
aF1.106116222257072
aF1.84836207120193
aF0.5281032933762827
aF-1.6277236927449128
aF0.65651829055522271
aF-0.50846740702620052
aa(lp67
F0.045713754013319091
aF-1.4734735584876444
aF1.3451832324055928
aF1.0580465669929671
aF0.47029179179720088
aF-1.7371294896518443
aF0.45414798894897485
aF0.60134030843070707
aF-0.49033118106015272
aF0.82588455073870737
aF-0.93376777896106278
aF-0.3955701428740831
aF0.94159300312889171
aF0.65205928274537373
aF-0.28798528796743073
aa(lp68
F0.13904034992007674
aF2.1901373205614614
aF1.4804517323103679
aF-2.1713073189129708
aF0.8743923850014409
aF1.7205261399827674
aF-2.4488160337374079
aF1.9586480048695061
aF0.77760429386742347
aF-2.3357940064555178
aF1.3655146865099608
aF0.9382108877699864
aF0.67369802460850736
aF-0.68318906657578959
aF0.35784347014809542
aa(lp69
F0.26013108545328467
aF1.1421075188083174
aF0.63778516489895531
aF-1.2095114216519371
aF0.51183305607809404
aF2.4161924803463632
aF-3.5659120785104164
aF0.86656141148998789
aF0.48781888365991682
aF-2.6029166879758088
aF1.9065317009327047
aF0.90067405874937156
aF0.03716138846902059
aF-0.28150240831610279
aF0.19021496334482699
aa(lp70
F-3.1552957793216314
aF0.5229436634384812
aF-0.42941833490656689
aF-0.16988803986490897
aF-0.73030510774789548
aF-0.5667054785898451
aF-0.15781326879352559
aF-1.2182170686860261
aF0.028813152127877665
aF-0.76189814944779655
aF2.5288663974233003
aF0.58432796894342853
aF-0.82061460373478556
aF-0.61077720206289332
aF-0.75350297219679674
aa(lp71
F-2.2875873409750422
aF1.6130597040224479
aF-2.7900896554139694
aF0.69777031875870899
aF-2.2092519481948893
aF1.970088017344636
aF-1.1271473037360746
aF-0.62471715200004063
aF0.28980643811868023
aF-0.4339261030492142
aF2.7061576141528874
aF-0.38300901416698696
aF-1.5573628588597086
aF-0.40226696257545896
aF0.45871122050536056
aa(lp72
F1.6899670854535398
aF-1.2577774346306569
aF3.5539632554359133
aF-4.1665029451413682
aF5.2279701280198463
aF-3.0081309981672253
aF-3.3663151140998098
aF3.7401062263743889
aF-1.2100784128910098
aF-0.90171680371978113
aF-1.6154834917308285
aF-0.0049507474970086314
aF0.22568724193320541
aF-0.51344965805048548
aF0.42583120754920534
aa(lp73
F-2.6745563285633049
aF0.74022093630646912
aF-0.18912743057818612
aF-0.61048769636864852
aF-1.3134688087747288
aF-0.14023578206781084
aF-0.6733766297091025
aF-1.1913530869230806
aF-0.53548465440216109
aF-1.2244694060652346
aF4.7990255104159507
aF0.52996974396512941
aF-1.0901631693953109
aF-0.57877643116971145
aF-1.7370604974791128
aa(lp74
F-2.4575960584521472
aF0.28663679787509622
aF-0.52496615489294152
aF-0.58671689012398553
aF-0.30904042785203972
aF-2.6328882034901886
aF-2.0175463861934793
aF-0.73356571117173563
aF-0.5990862406703108
aF-0.077570666773643493
aF3.066274981912771
aF1.0324784346331808
aF-2.0505077100823912
aF-0.054640750308848386
aF-1.8089750572249375
aa(lp75
F0.39210280975076006
aF0.13496880680706341
aF0.7115406638721391
aF-1.8977228852564163
aF2.2155946761525738
aF-3.0501112515195397
aF-2.5107048610621741
aF-0.95429574014477003
aF-0.33882472695660826
aF-0.32674006534054706
aF0.84117582309222849
aF-0.070451520911983825
aF1.0574566016733942
aF0.18397054271288707
aF-1.3310679800498126
aaa(lp76
(lp77
F1.4252667015308969
aF-0.047693137544708969
aF-1.1438141527285475
aF-2.0350174968032895
aF-0.47673561866093866
aa(lp78
F-1.7599620358339518
aF0.69007641744671488
aF-0.030252171681862634
aF-0.75973387311888896
aF-1.0546982958614006
aa(lp79
F0.49545977246002576
aF0.42374373150032163
aF-2.0362426758544703
aF-0.3659628327155659
aF-0.59055365300722107
aa(lp80
F0.74024646291999396
aF-1.8867345183243898
aF1.2928597883597577
aF-1.5425638961450991
aF-0.54872118737256192
aa(lp81
F0.11672400698559543
aF0.19724467611081678
aF-2.5782652521536096
aF1.4732776265402983
aF-0.81423201495602748
aa(lp82
F-0.9222233345863361
aF0.71664062385239979
aF1.8792839531162706
aF-2.51338559481206
aF-0.12562174253819325
aa(lp83
F1.6816922948984465
aF-2.0577866951305466
aF1.211933869610573
aF-0.64287419036454041
aF-0.81162466713249193
aa(lp84
F0.91471421682542198
aF1.2320761568113339
aF-0.80073382581397878
aF-1.2744869558389029
aF-0.29508750666564254
aa(lp85
F-0.91207923635818366
aF-0.48063913502502598
aF-0.54718476024739005
aF-1.321750613639636
aF-0.30957232939598511
aa(lp86
F1.2286364767443092
aF-3.2854456684748725
aF-0.48365608424276424
aF2.1034065993508024
aF-0.8150310757957806
aa(lp87
F-3.2340437136855669
aF1.1116070591466127
aF0.8790000673688444
aF0.90333793645166249
aF-0.39410077434519863
aa(lp88
F-1.0889962930980752
aF-0.0017725634439004299
aF-0.68373712034953049
aF-0.59945279178518274
aF-0.49098807516989396
aa(lp89
F0.96915170067985268
aF0.35673119136018916
aF-0.61836306741942371
aF-0.942604048953262
aF-0.077832870220135117
aa(lp90
F-1.2420643732196899
aF-1.6974943846309067
aF-0.80192277893208574
aF-0.30131694187338753
aF-1.2291138086987428
aa(lp91
F0.84706151389934015
aF0.063549759777464188
aF-0.030796504907305414
aF-1.3248532327039841
aF0.27641172679323517
aaaa(lp92
(lp93
F-1.9252188196267217
aF-1.2172721574638963
aF-3.1375631899659551
aF-1.4621883640272786
aF-4.3559622079016487
aF0.15037653636613596
aF2.2316140108192686
aF0.91570137269155127
aF-1.2406797929201341
aF1.295300939523063
aF1.4308850345127708
aF1.9015548787446623
aF-0.80621581390163966
aF0.12204282620119199
aF-3.885626901462758
aF1.2748981592170303
aF2.4347679232280544
aF-1.8254896807402254
aF-1.2081839167706907
aF3.0331139288506765
aF0.12506821343801475
aF2.2263907880148821
aF1.1681945325251155
aF4.0644649824636092
aF2.3592309426688978
aF0.23411546999098337
aF-1.6836777732273329
aa(lp94
F-2.5945349590552897
aF0.90472925974931329
aF-0.019178302524444368
aF0.92444466349286991
aF-1.1657449521234937
aF1.326534579670986
aF-0.51195099110079767
aF-0.1667722327513497
aF0.5653178679173112
aF-1.0239487737857196
aF4.3070827686309787
aF-0.61036973226754621
aF0.034080841353122157
aF0.19051366239515313
aF-0.44997232076115024
aa(lp95
F-1.4139060400920049
aF-0.71232662270759906
aF-0.20711439386743813
aF-0.95135369591372954
aF-0.42701698187211401
aaa.