(lp1
(lp2
(lp3
I0
aI1
aI0
aI1
aI0
aI1
aI0
aI1
aI0
aI0
aI0
aI0
aI0
aI0
aI0
aI0
aI0
aI0
aI0
aI0
aI0
aI0
aI0
aI0
aI0
aI0
aI0
aI0
aI0
aI0
aI0
aI0
aI0
aI0
aI0
aI0
aI0
aI1
aI0
aa(lp4
F0.00018812529742911333
aF0.96392689337376036
aF0.053469863470337713
aF0.0026520089230807654
aF0.0059092887164041569
aF0.014069866617016485
aF0.61691306384756039
aF0.96573277630993748
aF0.91640516688925555
aF0.00016521316799888961
aF0.0013644313410975015
aF0.98107018148089298
aF0.99972878546730393
aF0.0056794781430952474
aF0.97790352799523628
aF9.7374436816905323e-06
aF0.014185221292548393
aF0.00030677017306496724
aF0.00023006250572056155
aF0.16746624083530906
aF0.99993602412090443
aF0.4463615973009622
aF0.016692757739555402
aF0.0014735767493134519
aF0.84075807055868967
aF0.0002006983035482177
aF0.98393454984345396
aa(lp5
F0.98688012021801297
aF0.004667352751220483
aF8.4663417862957885e-05
aF0.99343618418895796
aF0.016100592634244092
aF0.64674457541249142
aF0.0022583191922447036
aF0.99987386472136186
aF0.99403419064238308
aF0.9416636397848881
aF0.9844290440440393
aF0.97376674633885896
aF0.99987122005592388
aF0.9911465071932043
aF0.99951131661309078
aa(lp6
F0.97543569441154609
aF0.0088550088915200324
aF0.0073081191684611262
aF0.0055624590617647735
aF0.0043052522939870603
aaa(lp7
(lp8
(lp9
F-8.2799988262620818
aF3.139921204746559
aF-7.0924036352040014
aF-9.388486442478877
aF-3.1802269953280442
aF-7.3841879718285037
aF-1.0535018065444788
aF7.5370588244577483
aF3.5244559232027459
aF-11.570279405451611
aF-8.303204198632093
aF8.4299114968309912
aF3.1891609527851559
aF-4.5198812250509528
aF0.28400897457298468
aF-8.8855246323446764
aF-1.6950514626551243
aF1.3928877547349463
aF-3.6857569343069803
aF-2.0642331340177651
aF3.8057621481263531
aF2.1066648695956665
aF-5.5348258239733017
aF-0.90527787205372401
aF1.5480139761606235
aF-7.3196309319439701
aF13.972811815053834
aa(lp10
F-9.4091279476490328
aF0.63077455812356698
aF-1.524553475697624
aF-2.4817181757704638
aF-2.2503696688618922
aF-0.95842891972331978
aF1.4279486195567752
aF5.3082767077713378
aF0.30518665583277993
aF-4.561928774697515
aF-10.201968609415426
aF1.2834316373738535
aF1.7289412774604231
aF-3.4548391101810858
aF-0.0021860039928229
aF-10.906371888435055
aF-0.71436043560994689
aF0.63984913929903109
aF-4.735859299833284
aF0.25848159657058334
aF4.8583116226611143
aF-0.54030244187596876
aF-2.7283278278789131
aF-0.78414614812545458
aF1.1872952428165398
aF0.51099341501574058
aF1.4337594030345502
aa(lp11
F-3.3843176453252628
aF0.41853190788432526
aF-2.4942630095211773
aF-5.8210879539213396
aF-1.9215109942846598
aF-2.1122175043271212
aF-0.42315288307040533
aF1.2228386690574409
aF-0.96511655593140278
aF-6.175005885887157
aF-0.60056773543442676
aF1.5573346928737983
aF0.23139638756217243
aF-2.3100389189050397
aF0.095411535304853107
aF-1.0280056664682904
aF-0.78667020470220839
aF0.57697249064719114
aF-1.3350867671475615
aF-1.8049280832878207
aF2.0215890582528271
aF1.251425183528678
aF-2.8649122269874652
aF-0.55800093617214885
aF0.64948494546645896
aF-1.3435508542053849
aF1.5211987189974476
aa(lp12
F-2.4907328006717764
aF-0.13869673605115071
aF0.65011727006006759
aF-1.0913574177133052
aF-1.4337949353256991
aF-0.33413060253708643
aF0.51064292426171209
aF0.46920765924707158
aF-0.42831783704717752
aF-1.5289701959986133
aF-1.0159676757718019
aF0.17251527138828701
aF0.53133850075653188
aF-1.1237798306662032
aF0.15214143794161694
aF-3.484899176947418
aF0.7699947365619465
aF0.08518815677798483
aF-2.0629625871628186
aF-0.21946021409486077
aF2.8229428408355663
aF0.016389970929169648
aF-1.8283260793206555
aF-0.72798509591034199
aF0.058157428269030545
aF-1.618131957667138
aF0.48864801091442661
aa(lp13
F-0.29479609939752482
aF-1.7560274070389963
aF0.87834068475728666
aF-0.32645191917450184
aF0.61858665382969225
aF1.7194459773129382
aF0.70362779124477448
aF-2.3160048835874791
aF-2.9923961569996087
aF-0.35829933741514369
aF0.62992909988962975
aF-0.39695548829047156
aF-0.079249547007021498
aF-0.29648035879531792
aF0.24730507556420359
aF1.0263600685801382
aF-0.54202215546959542
aF-0.72753208146859161
aF-0.31035612126293821
aF-0.2503174342979822
aF-0.48038676817409032
aF-0.050551583451419274
aF0.18934651125099491
aF0.18119629814589869
aF-0.22472702247349038
aF-0.27771510860213267
aF-8.4450524790252413
aa(lp14
F0.53835214495816697
aF1.8877685883162698
aF-1.055641460973856
aF-0.63057168411596642
aF-1.0225801227985434
aF-2.2222005833902276
aF-1.1784521421851737
aF-0.92973975724029878
aF1.7468999125099944
aF-1.5897554257016613
aF1.5913292931924328
aF0.66475440875431102
aF1.8291531331039725
aF-0.84709857361200935
aF1.0196905621379733
aF0.34960851363745821
aF-0.75413181478629887
aF-2.6379788552512125
aF-1.2414498735168982
aF-0.66118666043645402
aF0.96126472197608293
aF-0.22036940225117302
aF-0.39160044278624562
aF-2.1014974580808543
aF0.26453930892814415
aF-3.2118575100929339
aF4.3062320203027369
aa(lp15
F0.12210222952802909
aF-1.044091414794573
aF3.0764641906296877
aF-0.20114655450345667
aF-0.28309935810404258
aF1.2891610682016146
aF-3.3423210222937945
aF0.72473206468950491
aF-1.8944332240967259
aF-0.37753899213486936
aF-0.63895991984033029
aF-1.5220538220208308
aF1.3561230358528522
aF-0.055718684584935833
aF0.021923787373753285
aF0.40343492483231391
aF0.45624572483123005
aF-0.72848390250479023
aF-0.70716656007084044
aF-0.4507949994559633
aF0.86780016021313433
aF-0.79322720419000414
aF0.22098078206379862
aF-0.079531202776522383
aF1.9168076259765279
aF-0.70016059365594363
aF-6.7102136676239414
aa(lp16
F0.586801284000248
aF0.35235382317339659
aF-0.87570045822303544
aF-0.55067515139152623
aF0.46118551409443698
aF-0.77116407346766991
aF0.046757585300366548
aF-0.59774624479435434
aF0.46279072679003785
aF-0.19214316632026932
aF0.44332693975112886
aF0.56988206154141019
aF1.3816487492687863
aF0.067272161088716503
aF0.68778999427314358
aF1.1416709066131092
aF-1.6802769393958208
aF-1.7402623544128395
aF-0.00094863794603136068
aF-0.43513435211366441
aF0.40451625488926451
aF-0.06432196314019599
aF0.89315281928667078
aF-0.68573376479034553
aF0.23360373816224891
aF-0.68115117890006616
aF0.55995605588736708
aa(lp17
F8.0816237262945734
aF0.83010718455356269
aF-1.429137748036609
aF3.7220757961613451
aF0.35164759731219264
aF6.2088547958505584
aF6.9227917424255416
aF7.0259619038396171
aF0.90714715102681642
aF3.5897550446347832
aF8.4315063891379314
aF-6.2344653407001358
aF-9.9487207189978921
aF1.8430779138379123
aF1.8476839063428172
aF2.1508168764311786
aF-7.5336517035960977
aF0.22581430141720354
aF-2.860410648047504
aF0.99116410485426287
aF1.1356594112795053
aF1.44401821310319
aF-3.6054524648217292
aF-0.18103838773299125
aF-3.7517457334266764
aF-6.4386511116057958
aF-3.6534214095443942
aa(lp18
F0.45057029942461263
aF1.3339155451760369
aF-1.6063620757193158
aF5.0773587312068509
aF0.38476848852057371
aF7.1332445985714532
aF3.9117945432660672
aF4.6435199588508729
aF0.30931069338395362
aF3.1977657774897263
aF0.38992034327556108
aF-7.6068403230278481
aF-7.7121881577650333
aF1.8120260153137286
aF1.5907841482999328
aF0.79236775171187424
aF-1.5768127971023802
aF-1.2530514237876949
aF-1.3374093033240773
aF0.28813241239330772
aF0.19067264588614055
aF1.8991312445437878
aF-3.1582913575085572
aF-0.85113406134359604
aF-2.7306859862620798
aF1.0036168103850438
aF-5.0077411720369014
aa(lp19
F3.4199998170127555
aF0.80433240032251097
aF-0.56867857720148607
aF1.6343863957308595
aF0.5434562647466693
aF2.6047606893450905
aF3.6503348261788497
aF2.2041344522539998
aF0.73971706725703634
aF1.8026049883322499
aF5.7292020022235812
aF-2.5103620992232059
aF-3.1276955181474984
aF1.5743851044954988
aF1.5125399286308119
aF-0.76375444508610457
aF-2.2565515089015595
aF-0.31531108268518043
aF-0.066400051469964957
aF0.71475352130766756
aF0.53061887389487661
aF0.26986235062748115
aF-0.55169232480208064
aF-0.39559205860568764
aF-1.9703494219384354
aF-1.567104839769941
aF-2.6945607294880478
aa(lp20
F2.6586031256203322
aF2.1966767405161391
aF-1.5080648594959301
aF2.5943361426772538
aF0.78964249938709796
aF2.3723166470360324
aF1.2695230716312835
aF1.1261517881791532
aF1.0963723697126686
aF1.7478867217567506
aF0.75808368370730517
aF-2.6938025591205705
aF-2.6734120521381213
aF1.9562715132054267
aF1.5012883718528431
aF0.56536347137369281
aF-0.49681790243151969
aF-0.31375024266396101
aF-0.20185023554013826
aF0.94635466364858589
aF-0.12696910384670926
aF1.6581868309992562
aF-1.4041491191430553
aF-0.76466509979036934
aF-1.467091017404405
aF-1.366350982417609
aF-1.9864258704647557
aa(lp21
F0.14289187707146492
aF0.60870204832896802
aF-0.59831990694868331
aF2.9943103200140579
aF-0.16071513299048817
aF-7.8108893221546385
aF-0.64091732481292729
aF-8.7930876822285295
aF1.2829166846995979
aF3.8414383477953229
aF6.6578151296464023
aF3.23151660066591
aF7.574382434233728
aF6.6018104891052083
aF0.75883049539345082
aF0.80552806289843737
aF6.3314272733970949
aF-4.0913160239522837
aF10.084520128986936
aF-5.7632723194518674
aF-10.464063655385127
aF0.64949877664259348
aF3.9055594250758063
aF-0.069109478307676137
aF-3.0076533852317646
aF7.4374923452486605
aF-3.0366246969011996
aa(lp22
F0.44053075342926662
aF0.62306156247889921
aF0.75600964810900606
aF2.0058194872741253
aF-0.34722142280741702
aF-1.9305120093025783
aF0.40683759049646079
aF-2.2116778767172507
aF2.1472412937423742
aF3.726889032054769
aF-0.73141331110414853
aF-0.99165596871381023
aF-0.77625474239288794
aF2.6123129142392667
aF0.34243579153724374
aF-0.46455718035624566
aF4.7931738557440298
aF-2.2750398804815344
aF3.0920571302580369
aF-3.3853253179550222
aF-4.2415020952869398
aF1.6008233275217687
aF0.32280799055065973
aF-0.63581673591344634
aF-2.3125722791927021
aF9.1075314128238034
aF-4.9416662679441279
aa(lp23
F-0.15547252726854621
aF0.52455985709979014
aF-0.63572831930214269
aF1.8832415694247853
aF0.1139493072445978
aF-2.8803988438498886
aF-0.43430993365265774
aF-2.9228313280027667
aF0.28397786320107105
aF2.001076819456443
aF6.6270088564693879
aF-1.3092592225551345
aF2.0761930862346079
aF5.0721246475109636
aF0.84900437136583173
aF-1.5186820246898358
aF2.6690231286008368
aF-1.9515973172112964
aF4.097671629765709
aF-3.2925811764724378
aF-4.6351674370021305
aF0.79271561044746386
aF-0.063933418956403601
aF-0.64209381676131905
aF-2.3060045576511503
aF4.3216440169399695
aF-3.817533721490848
aa(lp24
F-0.073229976854287837
aF0.50169158888977716
aF-0.48860657435208343
aF2.3866854894388077
aF-0.55721606956704017
aF0.98008510112537872
aF0.30324857678813372
aF-2.0592305252918615
aF2.0078338470544894
aF3.4548289061098081
aF2.2136686554804506
aF1.569262652724003
aF-0.048428384997213123
aF2.8053380586105452
aF0.84637889941845856
aF0.14163494539818441
aF1.3535625784099152
aF-2.2935054455050223
aF2.0937381868798597
aF-2.8954039249630474
aF-2.5136944045238296
aF1.3042987572785854
aF1.5824445403463714
aF-0.23289241559649995
aF-2.1822322951855799
aF4.2635426242324721
aF-2.9271736218701969
aa(lp25
F-0.86672613748403415
aF-0.09243201705803443
aF-1.5707575651647625
aF-0.51039803799840844
aF-0.77304855918101811
aF-3.1448768319850755
aF-0.57872691341825244
aF-0.43684103193894552
aF0.53179068586687983
aF-0.32958344159278691
aF-0.13412781442876431
aF3.5128152742655798
aF0.65747032706940067
aF-0.32929629193392107
aF0.068714424466113672
aF0.64974901378287264
aF0.433057494984112
aF-0.23314177207102293
aF1.0410750075898627
aF-1.1913889610936501
aF0.031341575306132394
aF0.53107848959154569
aF1.4229142330382276
aF-0.4801794573471605
aF-0.44152733700995761
aF1.0599335881484753
aF0.86881575643712605
aa(lp26
F-0.82546265437804422
aF-0.057611094104584391
aF0.12335753971155773
aF-0.3816218262515868
aF-0.1883770101019446
aF-0.74386493388447084
aF-0.50171617311978833
aF1.1271323547310641
aF-0.43891259662121396
aF-0.67292995031323144
aF0.67104801252557444
aF0.14684859940123507
aF1.0527083949618763
aF-0.05533699474122563
aF-0.46220033901957025
aF0.018172874219476685
aF1.2092526062482922
aF-0.31878539370913928
aF1.5980510284665816
aF-1.2727106663877825
aF-1.6499636051746689
aF-0.46696597939328771
aF-0.4115189868824165
aF0.16901536851552384
aF0.051984678299299501
aF0.38290409019018828
aF-0.044319628669080027
aa(lp27
F-0.97806129413138332
aF-0.18275005417716619
aF-2.1030169708513613
aF-0.30321740766022565
aF-0.4638847528087327
aF-0.066292618067226319
aF1.2665092812095025
aF0.40551203422132776
aF-0.23330474462153883
aF-0.69352236629386288
aF-0.21290454986174751
aF0.054164631098477363
aF-0.076368121080514287
aF-0.24426738281795324
aF-0.24543296393706701
aF0.69801994601631767
aF-2.664655908582374
aF0.72633019558411216
aF-2.1942351863297263
aF-0.023155088175643154
aF1.7830992932882117
aF0.55028424806389564
aF-2.237560292119265
aF-0.22821526747899115
aF-0.27053054054773695
aF-3.4395364483905349
aF0.028455947411262585
aa(lp28
F-0.04158151938945967
aF0.086950761486792261
aF0.44870620102161352
aF-0.57030878973247767
aF0.39067196427906903
aF0.96834431500568519
aF0.67483031269213223
aF1.4341447180224811
aF-0.68756748131021173
aF-0.70048143601193491
aF0.20976711580719246
aF-1.1110741137729245
aF-1.0592769059383824
aF-0.44185173749883727
aF-0.2476281008659259
aF0.0057220714766868987
aF-0.8491570855377798
aF-0.19874148948105319
aF-0.77587437768788681
aF-0.0069382911530217542
aF0.38852843036580531
aF-0.016819201935759316
aF-1.981033328437388
aF-0.37271832432430291
aF-0.076720733557894022
aF-0.13886075826795991
aF-0.20038990744673532
aa(lp29
F-0.64682897640439962
aF-1.657364481099318
aF3.5711931507164953
aF-0.02696882017048258
aF-0.049166964203595072
aF3.003382970366153
aF-2.9705727779605389
aF-1.5567944196146086
aF-1.6653975791822571
aF-0.23371624479177736
aF-1.4131380588753222
aF-4.9766576308393269
aF-1.9302019377076269
aF-0.22388080022937495
aF-0.15871367228286284
aF-0.50933303606837055
aF1.2162356316757741
aF0.17792054342142893
aF-0.39864469133926972
aF1.2109824840926529
aF0.42683951764322503
aF-0.61417121784345352
aF0.5923777986464267
aF-0.52729874934429344
aF1.4373941495253888
aF0.11994054048322066
aF-6.0371578259492793
aa(lp30
F-0.048644411925768807
aF0.88930681565152703
aF0.29381009932146551
aF0.20264280580079758
aF-0.77674207238330606
aF-0.53653792524780108
aF-0.090886883950180852
aF0.41349932632384062
aF0.27586544085297826
aF0.17138086188077167
aF0.62573862736000685
aF-0.0022586669601303406
aF0.22911271075973833
aF-0.76384473967017619
aF-0.35158877389633192
aF0.18602089992475046
aF0.90438157279214981
aF-0.72600002661748131
aF0.046456272195788663
aF-1.0975292067050673
aF-0.50281255227686139
aF-0.20675665048857969
aF0.052735351785911828
aF-0.16466196883259263
aF-0.92864657229810643
aF0.83997782587120651
aF-0.36997607988238229
aa(lp31
F-0.64208194678623909
aF-1.6633405048097138
aF3.9958262273197791
aF0.36149305202830051
aF0.12605526022783323
aF3.7889373829111235
aF-2.7220469020693656
aF-1.4370984317214204
aF-2.0839255571738926
aF0.87934950241275023
aF-0.61567787867201229
aF-4.0473084235154921
aF-1.862595374891421
aF1.0220895632900369
aF-0.20086024462695132
aF-0.61526120764537973
aF0.83365691025083333
aF-0.37247321113438603
aF0.37380435974551118
aF1.2368587496253538
aF-0.36060132499773656
aF-0.53578472023702062
aF0.054157623458945356
aF0.14486137151979836
aF0.98012388275341489
aF0.75699955148978837
aF-6.0937997922031215
aa(lp32
F0.21143585260204981
aF0.74062162639734419
aF0.064734005700267994
aF-0.53318870600544599
aF-0.39155253246603716
aF0.051479663230790229
aF-0.21740756880132309
aF0.40726376956799254
aF0.42343448431337083
aF-1.1234712498451245
aF0.46156059837922031
aF0.55643480613742136
aF-0.75936543805462609
aF-1.4768462247529859
aF-0.49536098230877956
aF0.09613357326713616
aF-0.86862539070040723
aF-0.24740050391537471
aF-1.1654372469386494
aF-0.33901336653828579
aF0.40676539135549705
aF0.18981776027325803
aF-0.31512536427314758
aF-0.1995302534337634
aF-0.2128315472944462
aF-0.52362532753224444
aF0.041397346160599396
aa(lp33
F4.5261722147522967
aF-5.1448945389682965
aF3.1059197111890136
aF1.6587117331493064
aF-0.092083922668208931
aF2.2645438182557265
aF-0.28443655748366126
aF-10.142771474320192
aF-6.8258170294482108
aF1.9704046528823302
aF9.0415755052057367
aF-3.5870696183206396
aF-3.8929089398128944
aF2.8925044592776903
aF-0.66365494261278468
aF8.1929448060816625
aF-0.53352708824349293
aF-1.6490619190371856
aF2.3631873322957806
aF-0.28065174141745214
aF-3.5667697773388629
aF-0.70074263084613464
aF-0.39033395140972965
aF-0.28830388797869788
aF-0.87553129002046426
aF4.6966549110152611
aF-11.852729141171292
aa(lp34
F5.3532678760712233
aF-3.9611978250100748
aF3.1602331904589405
aF1.411564149791898
aF0.094197546858062212
aF3.0716264425330606
aF-0.47098318791425881
aF-8.8911974910083078
aF-5.6485455669498057
aF3.4136997356907761
aF9.7066373601220253
aF-4.6694165768054416
aF-3.5177815038865456
aF2.8983009595210616
aF-0.22106236586701408
aF8.9276896992154811
aF0.11999295929899648
aF-1.3970267382398964
aF4.0184516339997094
aF-0.49540842306427341
aF-3.6881735657949122
aF-0.28043426924538484
aF0.2069855324794222
aF-0.56862346609321257
aF-1.5981925538436024
aF4.5427237226265236
aF-10.416295856317758
aa(lp35
F-0.22810240124372846
aF7.3049120758740509
aF-7.0872195746960944
aF2.0058520932983415
aF-3.2589540759621829
aF-0.1287874460985404
aF0.36128212687031641
aF-0.18097458452164983
aF7.9356955786754462
aF3.9891742531599248
aF-0.35084240936015076
aF1.9190464330178276
aF-0.41815938915192852
aF0.17761413657206684
aF0.11811778820799165
aF-0.071604493733642527
aF-1.189026994114712
aF-1.6387359337177434
aF-0.61309703251472381
aF-2.3325580892384767
aF0.56938987874297164
aF3.7383744387839384
aF0.099393810348392536
aF-0.85379722293983951
aF-8.0503162135833595
aF-0.079238109457450467
aF0.56881502837536024
aa(lp36
F-0.046673850563962747
aF6.5775440299880774
aF-6.0863412870787856
aF3.3384916782635483
aF-3.3065471636872532
aF0.093683385686854762
aF0.40168753949749442
aF0.70936833139097999
aF7.1835909458418623
aF3.7235482667327302
aF-0.18282561422859303
aF1.2404098121533145
aF-0.047893878750076981
aF1.2767618628434299
aF0.61172578062286542
aF-0.46867791031064271
aF-0.24787415306771435
aF-1.1679592398666214
aF-0.061345140622211775
aF-2.0516522423203183
aF0.2753669294915419
aF3.1346804267070922
aF-0.2858053575326362
aF-0.93137953970285503
aF-7.2272100575325462
aF0.1600495767392642
aF1.1116321309836978
aa(lp37
F-3.7955610445067833
aF-1.1528281523207728
aF0.98565025517377014
aF-2.7211706381772216
aF1.3154309733783986
aF-5.4291350542391523
aF-3.4354000351609919
aF-5.4841808281747584
aF-1.4926220744951419
aF-3.0655287082590696
aF-4.9167171377587975
aF4.7801181076957446
aF7.4982004918607474
aF-2.0336091843947131
aF-0.95951885322009434
aF-2.4807051297271707
aF5.8328321664832083
aF0.14315693552285658
aF1.3947065413109456
aF2.2026342477342071
aF-0.19306186281406945
aF-1.2424284356407236
aF3.4725080494880425
aF0.084621482425816685
aF5.4468969508168916
aF2.5506374243487557
aF2.2231326675324006
aa(lp38
F-3.4786821811211031
aF-1.5057398202860393
aF1.5703600512133422
aF-2.7558108525493048
aF1.5377615902952853
aF-6.1371737154507127
aF-5.0280041331414607
aF-6.2808736713271953
aF-0.49876403973095196
aF-2.116632584850898
aF-4.6695983331019555
aF6.7316860587836826
aF9.2414377427771086
aF-2.7920040238899619
aF-0.23492017957237724
aF-2.7674327015621425
aF6.3980144101937526
aF0.40576528040147142
aF1.5093889732241075
aF1.9889300414769253
aF-0.091798550513364816
aF-0.9187124993816792
aF2.4272502235744673
aF-0.024568007086375656
aF4.8827869736105463
aF4.2971046992248487
aF3.6586427204386522
aa(lp39
F-0.17505409573288849
aF-2.6582543057530708
aF0.57856434827636083
aF-2.6901189165901611
aF1.4279895881407603
aF3.5568384341175512
aF-0.69041394934243394
aF5.5123667547561235
aF-0.68445861926549068
aF-2.7502597035355887
aF-1.6064976320043596
aF-1.737078155205801
aF-3.2410441984785434
aF-2.0645759054440824
aF-0.1588293187868382
aF-0.51705082582034001
aF-2.5727644187966945
aF1.8003813876663293
aF-4.6600505519747433
aF0.93529271109820178
aF4.6846375557600188
aF-1.3708895270269457
aF-1.5526772346047761
aF-0.25253765932671668
aF5.5198102660642574
aF-8.8297803054096313
aF4.941520053030878
aa(lp40
F-0.58997959025012603
aF-2.5740863658117692
aF2.462801846691546
aF-2.964594856298163
aF1.3668621592912125
aF3.1494626086521698
aF-1.0024481683850213
aF5.3716539789212039
aF-0.66901960273426453
aF-3.2110860217079868
aF-2.0226240783807592
aF-1.2914307777900293
aF-3.9753699428320721
aF-3.8916772460651163
aF0.35757040984480226
aF-0.75673734145676019
aF-2.5892619989795507
aF1.3262358041316293
aF-6.523296505717525
aF2.763437179084459
aF5.6864526259047699
aF-0.44864506455128528
aF-1.7462326225875386
aF-0.15073435554358428
aF5.5157127125307417
aF-9.8157502288630862
aF5.7611720947370983
aa(lp41
F1.3037135882163891
aF-6.7930475109423485
aF2.7197803489931718
aF0.3978553791452285
aF0.76043561549469374
aF3.1947380153400546
aF-0.13961735532283484
aF-8.2561347063432518
aF-5.994763325833115
aF0.22286587760076998
aF8.5997875927391263
aF-2.2863394828444861
aF-2.8267347801555269
aF0.26821966586903939
aF-0.13547886945022225
aF2.0059271863405161
aF-0.0097339495193092991
aF0.36061241566883934
aF-0.82632202299409763
aF0.50201703285313404
aF1.2182085206388249
aF-1.0024239955865413
aF0.90809498212580886
aF-0.17001971083420944
aF0.27539402035870703
aF-1.9952983835038403
aF-6.5200023696284966
aa(lp42
F0.091169324495748716
aF-6.1355771600872044
aF2.6040858995808653
aF0.39428256310787368
aF-0.096531691494728927
aF1.4332561565349164
aF-1.4149560988942269
aF-9.8575482592286594
aF-8.3468937213300602
aF0.064066308134300684
aF1.877356382487648
aF-1.7189325482888285
aF-0.5540277743014963
aF0.17933395889846462
aF-0.51753517520389791
aF5.8314141485008442
aF2.180368586349573
aF-0.53260661917857366
aF0.61826195547386953
aF0.7027624615237742
aF-0.82351283060340164
aF-0.8102474110026352
aF0.82339909324619742
aF0.080545633358967639
aF0.54172646954470915
aF0.54722917323207365
aF-7.0052154105464295
aa(lp43
F-0.22718214437303255
aF3.07252648128051
aF-3.5544094438623928
aF-0.79874386292744248
aF-0.78505119572846582
aF-3.8287047246275723
aF-0.044354528951898488
aF0.96276960679224943
aF3.9814139391473704
aF-0.28689707597636621
aF-1.4786435975479888
aF2.9379062672922167
aF4.0448585182130152
aF0.021818217409786542
aF-0.29699418154165041
aF-1.0612758159023321
aF-0.3535414818974853
aF-0.44972690202995785
aF1.4647356008106924
aF-0.75776983417362476
aF-1.2059463511438773
aF0.47622850154392765
aF0.55711564405227743
aF0.1304812391139023
aF-2.6169846950917406
aF0.64726104064107237
aF3.2945729864536868
aa(lp44
F-0.24798708688619658
aF3.4782131101432197
aF-3.9786338874950178
aF0.18675271059724219
aF-0.46179692822318175
aF-0.561137981332542
aF1.3104730339328208
aF3.4667474448063929
aF4.0485821075342461
aF-0.28829617831818249
aF-1.4661529277816507
aF1.2476377090942488
aF-0.68410147172817071
aF-0.81818745326730691
aF0.026051939099068548
aF-1.2797821576808235
aF-1.3619286134675901
aF0.26688909902245878
aF-1.6130291916102499
aF-0.62925207961402796
aF1.1884576322096869
aF0.71083056413023893
aF-1.0630657472270642
aF-0.14285447987409741
aF-1.169835388819864
aF-1.630225666358625
aF2.2948440526386737
aa(lp45
F1.6125648972435676
aF0.45799608257111624
aF-0.29391518813982409
aF-0.33702554254788014
aF-0.14658023779075083
aF-0.20083839382174021
aF-0.25924731433777354
aF-0.99960347204391053
aF0.45941596217093994
aF-0.18477070820282024
aF-0.0040869334795951224
aF-0.12629463355293311
aF-0.0090883957404845409
aF1.7476490101288495
aF-0.43274400727038015
aF0.88339480573330786
aF-0.47081081175287981
aF-1.0223609235239266
aF0.56546546965646782
aF-0.4840626894619664
aF-1.3485288281800605
aF-0.91679697714989261
aF-0.41791178001371837
aF-0.32581783213694038
aF-0.1780697407664748
aF0.44960528519961407
aF-1.3063374339772396
aa(lp46
F0.11624329164784972
aF0.35676263350768006
aF0.6645044152443722
aF-0.15656482378616779
aF0.29799075234433037
aF-0.12177245397999363
aF-0.36614614918993893
aF0.35758152566514267
aF0.21222448626175316
aF0.20591161687505402
aF0.095333049681329995
aF-0.37649587625604314
aF0.49196391756360808
aF-0.15750339451549231
aF0.5285248831334356
aF-0.068894549375663638
aF0.14665174785888474
aF-1.1132674638414473
aF-0.067558326351904702
aF0.082528558214377712
aF-0.25031764414537688
aF-0.36644005793315504
aF0.095264067126956467
aF-0.42537699211683927
aF-0.36611664703390129
aF0.02359669732259723
aF0.16593176341989518
aa(lp47
F0.14487339941595015
aF-0.17239068531498794
aF-0.011880767651058307
aF-0.13879194547215123
aF-0.1760515554644583
aF-0.67811015750701975
aF1.13311867052955
aF0.02237142918368086
aF-0.38650137092678538
aF0.063555689736015816
aF-0.42261908484997524
aF0.50392212376542633
aF1.1566739630639042
aF-0.5511790498079433
aF0.56907432800652225
aF0.059917727155557654
aF0.925905771145067
aF-1.703215622586175
aF0.30308359818427461
aF-0.17935238287593375
aF0.28596421656087068
aF0.26465737174165382
aF0.30069897969560377
aF-0.90995724243763387
aF-0.40054650981328987
aF-0.059129685207746606
aF0.050688761997423573
aaa(lp48
(lp49
F-1.9706270516721807
aF1.1703761084895019
aF1.2360162015442195
aF-2.6516216263509103
aF0.67830351278529977
aF0.46602097370557788
aF0.14223827458141317
aF-2.1452359649423371
aF0.61655541457907426
aF0.18916496128679394
aF0.291578517355912
aF-0.95442752460355451
aF-1.5120653326022711
aF-1.8326354817029786
aF0.73404878218185365
aa(lp50
F1.8476476030107805
aF-2.27709823351843
aF0.6897742651219626
aF-0.43567248410846132
aF-2.2229318124112343
aF0.41746066703983586
aF-0.68384461552749487
aF0.61517334870589935
aF0.51289764431650287
aF0.94575433926756158
aF-0.090575149321627441
aF0.2794049660167226
aF-0.55029566777048222
aF-0.035362705763464078
aF0.27997630515602084
aa(lp51
F-2.5043837954769317
aF2.5909437629440473
aF-1.2052845073771197
aF-1.0787172990215961
aF2.6093266654999732
aF-0.24548258210147045
aF-0.16892898292884004
aF0.12015816397494582
aF0.36131517023487608
aF-1.6727215843229566
aF0.65673732686911446
aF0.92491482439418715
aF0.82440920370108495
aF1.5828133548711418
aF-0.53795975422835729
aa(lp52
F0.34011718195367041
aF0.07951214891513711
aF0.62315094579662467
aF-1.5233462198027337
aF-0.042939986482304647
aF1.070908212927667
aF-0.20919367672943526
aF-1.0224580857437227
aF0.34602201479796557
aF0.94911251542977515
aF-0.23503367705771122
aF0.36364839678800537
aF-0.31919268774467252
aF-0.69403295296520051
aF0.1914747493315771
aa(lp53
F-0.91185624304165369
aF0.88394539085903201
aF-1.0783254481961579
aF-0.80970724596066046
aF1.0075972320287663
aF-0.50315754137384217
aF-0.68529565224317623
aF0.20310541602471435
aF0.47862917651624703
aF-0.96456118824868309
aF0.35118739521096831
aF0.34167675990755175
aF1.1982793454640168
aF0.035682131195922999
aF0.81779478619919799
aa(lp54
F-2.459563158454205
aF-0.23269967297054081
aF-0.025054471758334185
aF-1.7960308998758037
aF0.057745402029210996
aF0.13023343961989439
aF-0.55694193796298597
aF-0.72581797416628913
aF-0.15564581036656541
aF-0.42407471676899644
aF2.4612162429686264
aF-1.5603985343871631
aF-0.63728619336156622
aF-1.0638603352303326
aF2.0792482278725859
aa(lp55
F1.4941615245457813
aF-1.9229371430564719
aF1.2389853784399643
aF-1.0112518056354045
aF-1.3131302106388782
aF0.97768076930078407
aF-0.49067000457372845
aF0.60836663465505902
aF0.49097343109448932
aF0.57417140880589856
aF-0.23045435709917472
aF-0.37936495819627319
aF-0.12584631658810438
aF-2.2238415968708614
aF1.4146761108845274
aa(lp56
F1.4835793362232912
aF-2.3949767279452612
aF1.1456221729675933
aF2.5168694753331424
aF-1.278363658263896
aF1.5812787504691055
aF-0.15129972621781435
aF1.6252034520941643
aF0.74759851146850331
aF1.6560060761442503
aF1.5950674681774444
aF-0.62678453449135119
aF-0.019504178686852242
aF-2.0823512284604653
aF1.8659104866633613
aa(lp57
F2.6355222362542818
aF-2.627246822964445
aF0.41311511680458041
aF-0.01173086384911343
aF-2.3953557896510791
aF0.74243768020889744
aF-0.940718994066569
aF0.78946540215917027
aF0.4439534816045872
aF1.5129972404237706
aF-0.79436827047746106
aF-0.4391049346737036
aF0.012048540469037293
aF-0.025831651691316768
aF0.13301207685647692
aa(lp58
F-0.20179768223214659
aF0.85394089511607996
aF1.1812562744999526
aF-1.6153611685667872
aF-0.076524588829293486
aF0.50289011947675655
aF-0.057702514859472025
aF-1.8318619377313652
aF-0.23337983734908749
aF0.72004762243643272
aF-0.6689420516500979
aF0.3011662205242801
aF-1.5431067327169588
aF-0.24084042012362669
aF-0.43947898025937127
aa(lp59
F-3.7089267755426598
aF1.3735522401347082
aF2.2778812705306608
aF-5.028746142976722
aF0.96150418758548772
aF-0.17048334002516241
aF0.19502153644664572
aF-2.1794477713759339
aF0.18774405170315078
aF-1.4456410597643612
aF-0.3891060719422692
aF-1.6076340230956263
aF-1.8197683788092776
aF-1.2098444813370339
aF0.07784551351498796
aa(lp60
F1.2789111821232346
aF-0.55946322164370077
aF-1.8207281657873373
aF1.5501941299066786
aF-0.79776459727134064
aF-0.14545457591875813
aF-0.054352185614396607
aF0.71445681350881385
aF0.62661646373699609
aF-0.05792132295917856
aF-0.82030212963306115
aF1.2747764230277923
aF1.2779135727678868
aF2.2033255770841826
aF-0.62841613003303864
aa(lp61
F0.64483584625511925
aF1.2539240193640371
aF-1.2374401904341215
aF0.97157575597620893
aF0.69298869152772424
aF-0.6196717736811459
aF-0.32175620854103004
aF0.74706590841541476
aF0.067828931689849645
aF-0.62246701025075768
aF-1.4274644375076084
aF1.5551809876314064
aF2.2298049155106723
aF3.08414428594295
aF-2.0649360167340274
aa(lp62
F0.93337251333595739
aF-0.73589359364186779
aF1.1159742510545361
aF-0.55305430409679524
aF-0.59537198618490106
aF1.2581017863029504
aF0.16307075329330467
aF0.067916237407041516
aF0.27020062488503915
aF1.0369677853482975
aF-1.6118037261188933
aF0.62024649141766108
aF0.063652475121107499
aF-0.83029661793085419
aF-0.06587641308970045
aa(lp63
F0.1930722528065987
aF-0.10461838943360695
aF-0.99079663506945892
aF-0.77790552773036847
aF-0.2653332176533727
aF0.014214123540035577
aF-1.0044628041852994
aF0.14108681540054949
aF0.59939017387051929
aF0.19172263454754654
aF0.30680352162371632
aF0.38544126310579852
aF0.64791299733766183
aF0.006397760341496775
aF1.0052915682589567
aa(lp64
F-2.7564502945583245
aF1.6268360970504205
aF0.41883004069307983
aF-2.4936954948739913
aF1.5777681487501882
aF-1.3822713788395002
aF-0.29616313910839487
aF-2.4424781485026892
aF0.072904132342244563
aF-1.618898620648356
aF0.58816254106262056
aF0.22052629512523486
aF-1.4188383493108094
aF-0.012497986858118735
aF0.45589333569955559
aa(lp65
F0.23329789578172655
aF2.3801131060533285
aF-0.86077550661960966
aF0.088432906216153642
aF1.3926307188306877
aF-0.35137937257384794
aF-0.43477222679855571
aF0.59599751953574454
aF0.16358058294197217
aF-0.33853707388957299
aF-1.258279243030398
aF1.9645229284904637
aF1.5561476537240897
aF2.1636102938246187
aF-1.2317121814999257
aa(lp66
F-1.3301491709458628
aF0.5864638864819004
aF-0.45318508549628866
aF-0.10590184797029498
aF0.26683854544741803
aF-0.49639030241538917
aF-0.32414999300137853
aF1.0347733513235631
aF-0.23025375784703267
aF-0.23630139748260762
aF0.58011224863754463
aF-0.81913017919540587
aF0.65984600202002741
aF-0.68315223000131209
aF0.36003979481217491
aa(lp67
F1.0107483274571822
aF1.4853858319957005
aF1.5438512391268921
aF-1.031751522997473
aF-0.41524234119228626
aF0.60195880778651167
aF-0.18882561919627314
aF-0.090168152757309203
aF0.59364841509817734
aF0.78554032498266491
aF-1.9097071998015291
aF1.6801641456278373
aF-0.25465869625433324
aF-0.018641450309966768
aF-1.1494249486668342
aa(lp68
F-1.4027584580342474
aF0.86287055100450583
aF-1.4482847126129219
aF0.2059030595708097
aF1.519607754265605
aF-0.76532930080531048
aF-0.26946568137695065
aF0.053909506604173728
aF-0.24043375502974079
aF-0.96846956556572461
aF1.3821992319264071
aF0.079663413723333631
aF0.77391141178080813
aF0.13591093154419676
aF1.3245273695137565
aa(lp69
F-3.1470294399652947
aF0.056135885556040786
aF-3.2781389369979261
aF0.55357394873325805
aF0.92741791565137888
aF-1.3196824546760912
aF-0.71730287312606511
aF1.045071149210294
aF0.3830196833207053
aF-1.1467946107752049
aF2.1516116642217629
aF-0.29425316002991919
aF0.82120877884228438
aF0.52051433286643511
aF2.0104956671924272
aa(lp70
F0.61410254833290479
aF-0.5038832056722834
aF0.39143195245921381
aF-0.69431720662484764
aF-0.74646132693032596
aF-0.26678499322750648
aF-0.14511979554649823
aF0.76369929345994825
aF0.63920529933324777
aF0.57202832777667145
aF-0.10745777657685295
aF-0.19156532172680307
aF0.60404212067807561
aF-0.60369757426670512
aF0.58319170868491887
aa(lp71
F-0.20924227015726302
aF1.3955643304770191
aF-1.02588707044699
aF-0.34166409331529063
aF0.64820943547339138
aF-0.73449685563971145
aF-0.77224648112345784
aF-0.61992169976038491
aF0.55023237085753107
aF-0.37598999982671127
aF-0.31934472897217003
aF0.47534450429961611
aF0.62486634508494032
aF1.4917679716357097
aF-0.45038851381105727
aa(lp72
F-0.73906456128677678
aF0.48357472576926169
aF-0.75947711657627959
aF-0.54773467776136353
aF0.22384102474195866
aF-0.16094005222101226
aF-0.268240403307685
aF0.27108528928211634
aF0.49564880702717817
aF0.020599698602401705
aF0.085522921074490874
aF0.24432221093665463
aF0.54788683299950325
aF-0.13892553315696238
aF0.32484097300973019
aa(lp73
F-2.2340529737776418
aF2.7088387009156847
aF-2.6995974518735197
aF0.42045020240846448
aF1.949729210956378
aF-0.53605020983138973
aF-0.86466293783308623
aF1.7117055445865119
aF-0.36881655653574791
aF-1.1226061610897291
aF1.1396144991475503
aF0.62085523454019287
aF1.4648633683242527
aF1.0581148802260156
aF1.0053952043518062
aa(lp74
F3.1897215632469669
aF1.7048824214045974
aF2.1894997508357568
aF-3.2156881317647867
aF-0.69996564401151407
aF0.70934567628400069
aF0.15275935166685373
aF-0.35611812785377861
aF-0.013326622225479643
aF0.93948347594947978
aF-4.5642200395189683
aF1.9104837761540527
aF0.86968141299048041
aF0.14826308723512582
aF-3.2360805064991269
aa(lp75
F1.5631129937438226
aF-1.9203576424394038
aF-2.3428833551690347
aF3.2792542389568617
aF-1.4446862676521233
aF-0.19454965418086245
aF-0.11853131974815741
aF0.74528137721135346
aF0.37348819406613304
aF0.66365675463884477
aF1.7396249104651513
aF0.54698233763910653
aF1.25375807106693
aF1.3120201666731302
aF1.248104185725484
aaa(lp76
(lp77
F2.0404549591842218
aF-2.4114472635103592
aF-0.79299026578500709
aF1.5056604058855867
aF-0.58696562591418411
aa(lp78
F-2.1120477836032592
aF1.7732942501093363
aF-1.4955376056447232
aF0.40720385183266045
aF-0.77003161063909198
aa(lp79
F-1.3511049478955348
aF-1.2080943780750928
aF1.0119099954627897
aF1.3337879801184538
aF-0.52833639132544108
aa(lp80
F2.9649691574478654
aF-0.4985417719918126
aF-1.8648900918793838
aF-1.6430380267894165
aF-0.068771593849336898
aa(lp81
F-2.0020121956657353
aF1.4422274445767758
aF-0.67911252818136358
aF-0.42328516684347406
aF-0.49307568805326313
aa(lp82
F-0.6030054136330929
aF-1.1075493462025559
aF0.58038308821284534
aF-0.18772068885179272
aF-0.94474548748671827
aa(lp83
F-0.073943553660821532
aF0.34534487253570967
aF0.30107148017432606
aF0.1980753525359889
aF0.17385435934250471
aa(lp84
F1.0927446832975134
aF-0.018831812781479364
aF-0.5546337282057977
aF-0.37838908805673332
aF-0.788467197998858
aa(lp85
F-1.1842996706930682
aF-0.79961477915456347
aF-0.34978746167954022
aF-0.3299771783223675
aF-1.070480499207257
aa(lp86
F-0.14443944747907886
aF-1.595466908579438
aF0.31768521212940359
aF0.67056786561077408
aF-0.66383976531599476
aa(lp87
F0.17303440861961569
aF0.62523516403099455
aF0.49059946195720278
aF-2.3547159403389686
aF-0.40515554541030591
aa(lp88
F-0.25975335394208687
aF-0.12628177216811382
aF-1.0567686138843297
aF0.38225142594901473
aF-0.23317953057181062
aa(lp89
F0.1369153796149491
aF0.44199357028514114
aF-1.3972230414423741
aF-0.018757452995955645
aF-0.33794061781461004
aa(lp90
F0.54135724809570007
aF0.75029437927737774
aF-1.7662005353606614
aF0.30009278078764268
aF-0.043772088531946252
aa(lp91
F-0.18115562039202193
aF0.1702867935529144
aF1.278418322109689
aF-2.3405215982973977
aF-0.41661210558785311
aaaa(lp92
(lp93
F1.1721298650683527
aF-0.80199975196918072
aF-0.73538813598711505
aF-1.0195294211173669
aF-1.1806763433882941
aF0.15752497875783894
aF-0.95993688038707903
aF-2.247493210599
aF-0.89956664766835437
aF-1.0413454401352917
aF1.4921119942631154
aF0.63692196506344789
aF1.2501117444209415
aF-0.6470557951209569
aF0.40412848570615884
aF1.4275858275244859
aF-2.0105952984761131
aF-3.3226373547713983
aF-1.2487962619123829
aF-0.63107588238328072
aF0.84705578050253649
aF-0.038066461216052526
aF-0.11669568338257216
aF-1.7940399862574898
aF0.28347626040916041
aF-3.5369671919460846
aF-3.8279935479477283
aa(lp94
F-1.6957210903943674
aF1.5737664221233176
aF-1.1932374611969949
aF-1.8477261629084716
aF1.3771609957620703
aF-0.61796900552467271
aF-1.0621815623177169
aF-0.3868550124135573
aF0.20108830569231306
aF-0.52701827412010382
aF0.3423345041831044
aF-0.30399315792346476
aF0.72358973243540559
aF0.069380757853431729
aF0.71464736632274151
aa(lp95
F-1.3952032176170035
aF-0.69191592145301628
aF0.15788019703947126
aF-1.1360939939348678
aF-0.27573156281655259
aaa.