(lp1
(lp2
(lp3
I1
aI0
aI1
aI0
aI0
aI1
aI0
aI1
aI0
aI0
aI0
aI0
aI0
aI0
aI0
aI0
aI0
aI0
aI0
aI0
aI0
aI0
aI0
aI0
aI0
aI0
aI0
aI0
aI0
aI0
aI0
aI0
aI0
aI0
aI0
aI0
aI0
aI0
aI1
aa(lp4
F0.073434971458551088
aF3.4170035407482097e-10
aF6.2049687622059593e-15
aF9.2647016545846394e-05
aF2.0249138368713171e-09
aF0.99940299743937933
aF0.99999995464423963
aF1.9478106097138379e-06
aF0.99999999941273798
aF3.097245090108377e-10
aF2.3059616186199078e-05
aF0.99999999812589824
aF0.99999987733672002
aF2.6083924202988566e-09
aF0.037693881018290368
aF1.8673490272214444e-13
aF6.8821923988342905e-20
aF0.99999998711284788
aF8.7049177824365648e-11
aF0.0051603094014697386
aF0.99925781922295365
aF7.5891721062173826e-13
aF0.99999999999995937
aF0.99999999999569744
aF1.0332072118008037e-11
aF3.2112891035385781e-18
aF0.99999989217256979
aa(lp5
F3.4525773500150242e-06
aF0.99145953299583733
aF0.77110133895928423
aF0.00018063858214416631
aF3.8210776881980152e-09
aF0.72597440161643945
aF0.99977898847627322
aF0.99996165952286797
aF0.99676823113984658
aF0.0010686853959428137
aF0.99999994714765184
aF0.39706337896158006
aF0.99949764507962657
aF0.97215546067238146
aF0.99911840266019825
aa(lp6
F0.99820423043515827
aF0.0018921657703083604
aF0.0024541892558850344
aF0.00058153472241146917
aF0.0019006368140784195
aaa(lp7
(lp8
(lp9
F3.4427095814951123
aF-11.86325550428138
aF-12.089730248293435
aF-11.581447770100691
aF-9.8562800218798206
aF15.513128718299251
aF11.193859455356252
aF-8.6495877680633253
aF8.2526357659164002
aF-15.333891055468829
aF-12.385549022773153
aF11.66472036277089
aF18.409697300552967
aF-12.584279500442761
aF-11.490568956871762
aF-27.248655140610893
aF-18.849815352737512
aF16.075916031809321
aF-14.441598536145682
aF-6.0000736948025368
aF3.7127632665408523
aF-14.404955405692519
aF21.099583243012095
aF10.778123327913915
aF-15.19318884295882
aF-27.652989750045965
aF6.2770468502759718
aa(lp10
F2.6783160584131034
aF-2.0569675533417384
aF-6.93274981707133
aF-14.227406108084505
aF0.39348856375742503
aF15.57076062308891
aF-0.8092877039980223
aF-1.5237744913926861
aF0.37011242872769123
aF-3.3910899534637342
aF-6.1422318089941799
aF2.9915041988765867
aF2.0844997755645069
aF-3.4143292012175777
aF-12.557567652001191
aF-16.052640717040887
aF2.1431108365292539
aF8.3072992358148277
aF-8.7788952822606809
aF-8.0984106647516327
aF3.0967761276092398
aF-7.0476150290367903
aF-0.25657534974237939
aF5.6775929361675344
aF-4.505792190026737
aF-11.14950147721629
aF7.9098082039227284
aa(lp11
F2.0224104099384763
aF-3.9859495789890236
aF-7.8076277354683272
aF-2.4999157924425179
aF-5.9006838327547095
aF3.380444071014518
aF1.6689248418242879
aF-1.591678492035314
aF0.77253800504348868
aF-2.8382662425251497
aF-0.78172116650866919
aF6.558569725645687
aF0.89470928854424558
aF-2.9374558192152471
aF-0.041393700647654713
aF-6.9968811594101066
aF-9.9320097789395074
aF4.715536186066589
aF-7.5346092069449195
aF2.9393786795298946
aF0.39527079300259815
aF-8.3119678517535558
aF0.72032473943887709
aF2.2674517416767745
aF-5.3405408642768997
aF-16.024053708355385
aF1.2711789183371667
aa(lp12
F0.77955381813810964
aF-1.4622010674626476
aF-4.6551306131231041
aF0.56830223790354917
aF0.76461067710879838
aF5.4056246676183877
aF-0.20017754520377182
aF1.6622298419140435
aF2.6410433450154374
aF1.3855848262968156
aF-0.60211817439419879
aF5.4558241547085631
aF0.58447130288004956
aF-1.6131518029286287
aF-2.474845338040577
aF-0.96995630680400025
aF-4.3482113052006506
aF3.487622123160333
aF-1.0141868166695109
aF-0.28273117555729865
aF-1.2418527234119572
aF-5.9655737602547187
aF-0.70389449654985148
aF1.0634282239812645
aF-4.0572169531016495
aF-3.492033227492338
aF5.2320104753209309
aa(lp13
F-0.97367853135040217
aF0.047837181182613951
aF0.21013874981058908
aF11.614336040344416
aF-0.064361580902203203
aF-0.52297905437976377
aF-0.45726211824729612
aF0.089105064628715661
aF-0.057147490803092359
aF0.10380842965698127
aF4.0409818583956101
aF1.6319849899970669
aF-0.43021085917407964
aF0.70022969182429418
aF0.74921746606938333
aF0.10221440592960121
aF-0.33213753644079569
aF0.25213733263751958
aF0.52768540520978058
aF7.2853384097923826
aF0.48666043433639583
aF-0.20350942479571688
aF-1.4489540555546543
aF-1.4771628268385226
aF-0.076339793715772791
aF0.35063512283786641
aF-0.5918551042388045
aa(lp14
F-2.3159585331231822
aF-3.0909393667005935
aF-4.7206816699746792
aF-3.8632212227560845
aF-1.7430019094082994
aF-4.533490260657004
aF1.2088052561165539
aF-1.2387029122607627
aF4.0472250019378677
aF-0.32161306189304989
aF-0.30375988381876023
aF0.155874542349837
aF-2.7157414325611668
aF-1.5428057693498236
aF2.776687680796583
aF3.8131717569708306
aF-7.976073298585562
aF-1.4775827530911974
aF-0.07338235701015379
aF-4.9658159049546606
aF2.6106253600293332
aF-2.0240806136903724
aF3.5355549475531647
aF3.8068413564312689
aF-2.3642971214711177
aF-0.67477511897308551
aF2.6579644164368008
aa(lp15
F4.8697536143426827
aF-0.02637558012654263
aF-1.4493088905294949
aF3.265145146105735
aF7.9960986967381702
aF2.4618993731784276
aF-6.8699130208610395
aF1.4162387286244813
aF-2.0373831872564563
aF8.0359034271544694
aF-1.1326315976347212
aF-2.7791536850207237
aF0.41047339316019238
aF-0.9640890643898411
aF0.91133587115639814
aF0.12074037531140433
aF0.094570479866589771
aF1.2208381631725442
aF-0.48595650808112389
aF0.972449792413839
aF-0.42090429724716244
aF-0.72754352296476754
aF-12.056333742430503
aF3.0868414761841816
aF-0.58499750195598366
aF3.9852409997604661
aF1.3067333966518495
aa(lp16
F-1.2442685359206349
aF-0.078252701153747065
aF-3.6585555837133961
aF1.2895435852929571
aF0.40542666912553138
aF-2.9611843321225546
aF-0.11661636630950974
aF-0.35873086378819091
aF2.5832581083502273
aF-1.6269411790699875
aF-1.8247823137773886
aF-1.6474361065982499
aF-1.2097230898551927
aF-1.4509236703774655
aF1.465308485597836
aF-3.405628391208293
aF0.38749821704853049
aF-0.73743836888617842
aF1.3556235438831146
aF0.96098380623353041
aF-0.054636035974694262
aF-0.67187808823264095
aF0.79209598578128404
aF3.1938351861141459
aF1.2292085190500144
aF1.9185163067725994
aF1.9656445263582525
aa(lp17
F-4.8501819426863113
aF10.905182992286385
aF0.44658103290442769
aF16.823730451719211
aF-3.4748897648544412
aF-15.272734267047484
aF0.33494577156142519
aF-0.90272926068900872
aF-12.319985603401511
aF8.1233335171757517
aF12.426913951539364
aF-12.17209795860887
aF0.25204926155489299
aF-0.35813445494225454
aF-6.8370642981607634
aF4.9474104389989666
aF22.8205834573718
aF1.789941456163566
aF8.0109016386167546
aF-1.6859938661417764
aF-21.172819607521774
aF8.8453445657778644
aF17.710392563568533
aF11.675244376765441
aF13.069531484635453
aF9.0929851418869028
aF-17.972927727279956
aa(lp18
F-0.63330728312530316
aF12.466897318441202
aF3.04573080679469
aF1.8244296230925534
aF-1.508079782672842
aF0.83465944584492391
aF1.7062049016890701
aF-0.21594364500094693
aF-13.847186903392242
aF8.8938814305786131
aF9.4740278968647704
aF-2.9819198336115087
aF-4.4400050661012402
aF-1.5185495561135001
aF-6.7627011731072058
aF-0.78231895055034539
aF6.1316052504521439
aF-0.2602582607685876
aF5.1369114605883288
aF-1.1135556527696395
aF-7.1873504209708363
aF9.0198421416987919
aF-2.214044982682227
aF6.4724324576909558
aF16.348458803735767
aF13.676144006927469
aF-6.8094713010181653
aa(lp19
F-3.7086013898771237
aF5.0251944325729276
aF0.43217619906480309
aF11.137811680413039
aF-0.86898567962478002
aF-12.160209334238063
aF0.088350913430421577
aF-0.800958099200337
aF-5.0223513748064939
aF6.2522901408291425
aF5.6919359838630559
aF-1.2775749618862784
aF-1.88998130471008
aF-0.077757623712702825
aF-0.97547989736218521
aF2.5718977485437251
aF9.4916476041902005
aF-0.58941237366962351
aF3.6466852546056057
aF-1.1944192622207954
aF-5.8320719019413412
aF1.0295382798941015
aF9.2855296603639594
aF6.7317040413497198
aF6.0162222879663956
aF7.9178443487839365
aF-5.8842482831580618
aa(lp20
F-1.8002589015165349
aF5.2864541400692566
aF0.72846181421624645
aF1.14509104052879
aF-3.7274675824881287
aF-0.42298584502673103
aF2.1358133190104405
aF0.61529328905144853
aF-5.8572844194858948
aF0.31368195106213098
aF7.5474619653160522
aF-2.0977546935096991
aF-0.55337868925939249
aF1.2693681059441155
aF-0.96665718414107316
aF2.3140860605654772
aF-0.90357431691933054
aF-2.3491296722093002
aF6.1869612151711051
aF-1.0388580909133962
aF-5.8458239522605826
aF5.7030453042767597
aF1.794477216964756
aF3.1438166140954316
aF5.2751436754210381
aF7.0042847486609494
aF-4.99839092450273
aa(lp21
F-5.9280663743329853
aF-13.666768159114673
aF18.289051160687762
aF-2.4806745744924958
aF-0.88295546107531364
aF-14.232998277877764
aF3.6297920483477064
aF-2.141288257062758
aF-9.5215465420935921
aF-14.511821839763858
aF10.137122536697001
aF15.661337975575993
aF-12.964269586982972
aF8.0753448456900454
aF18.194946268706182
aF10.372243759508583
aF-1.4008141525757216
aF-12.25207398338523
aF6.7149820881335698
aF-2.9712535225723249
aF7.5198878444092259
aF-1.6554774587956009
aF-12.748558320927316
aF-13.462361972319538
aF-12.498097716100419
aF1.9270641046198143
aF14.229857544685771
aa(lp22
F-3.396329435495506
aF-0.20149831449983649
aF9.2593749641309699
aF-2.8676041801917722
aF-1.3143906224191169
aF2.4957001731237534
aF-0.56441756238511342
aF-4.6187778868554732
aF-10.647556422578997
aF-6.0749303964146142
aF7.2590917561718493
aF7.1189905454077786
aF-12.840467297264375
aF7.231835795007278
aF-1.9552597960047995
aF0.74704762129555569
aF-0.53389780157557098
aF-1.0307601835566711
aF5.2414769153563503
aF-3.7529303718038833
aF9.9066915884592799
aF2.2611383822809143
aF-15.566330987371842
aF-0.78656686528229247
aF2.3090039433097918
aF0.63646471743123034
aF6.0197027320765688
aa(lp23
F-4.0750966140034643
aF-7.1460673821184919
aF9.5725820741152639
aF-3.7961951704509875
aF0.44044389537044726
aF-12.130282767196856
aF-1.366692271549403
aF0.3626519487989458
aF-8.1143826887630013
aF-5.2109670396600798
aF9.5627705513421279
aF6.0801134254439555
aF-10.967245570658987
aF6.4729474440249648
aF8.0193914675403768
aF1.9517161147023014
aF4.0166273072654866
aF-0.65553044248453629
aF8.8104217376991052
aF-0.57227902010912224
aF1.401590145603173
aF-1.1739695412934334
aF-10.128428062670363
aF-3.5151344151339199
aF-6.3021696818167543
aF-0.89662353797020622
aF7.5675286016676626
aa(lp24
F-2.4551064715975737
aF-0.018922756222954796
aF3.3158027411711504
aF-3.1153554714183516
aF-0.60662004576585127
aF-2.1581093141900456
aF0.44554225163577693
aF-4.2202826548436647
aF-6.5167970839649412
aF-2.9657453036970689
aF7.5775053925106315
aF2.857877111190442
aF-7.7962702615742856
aF7.1260087253168107
aF4.4991656048720321
aF1.2458289827692077
aF2.4653832643325382
aF-2.3020111010314239
aF5.2639504287344332
aF-1.075511978263554
aF4.0092185704801544
aF1.6368328270715811
aF-7.500313856144361
aF-8.704924272972745
aF-1.9743635569327729
aF-0.39207639804784644
aF3.8545863575851129
aa(lp25
F-0.015806255863771827
aF-6.7630173356769072
aF1.2613693215997384
aF-0.04343060061402667
aF-3.251316539167517
aF-1.4917799926129298
aF-0.19981792984167829
aF-1.6654465821565922
aF0.57615077853838426
aF-6.3470228010053713
aF-1.0347939892839717
aF2.748955280525136
aF-1.3574193474027567
aF-0.30678956517632289
aF0.64674809136282496
aF-5.378725818435572
aF-7.0180240808582273
aF-0.12230238328469392
aF-0.1402626338257299
aF-0.38863000101732098
aF4.0099878900344761
aF-1.4066349794745403
aF0.79582909227983045
aF-1.1942309476774666
aF-5.1795076230800881
aF-3.1453948058723196
aF4.7674375480530315
aa(lp26
F0.034879743010056245
aF-0.96025511922611062
aF1.3693840261176
aF2.3431192033682269
aF3.2076808529847458
aF-0.30534796943988113
aF-0.22934491035920629
aF-3.2080117082580619
aF0.16718527405368566
aF2.2113094642533606
aF-0.37411052755853008
aF1.0807544128741546
aF3.1317947390791181
aF1.0876062167203244
aF-0.18212400887541508
aF2.0203318742274297
aF0.49778682508780692
aF-0.11214062593919838
aF-4.6708789124329195
aF-1.6535756604561389
aF4.9848258228600324
aF-1.0773040436821291
aF-1.9198328143256311
aF1.5963523646529445
aF1.5108562366155731
aF-1.0595583835838485
aF2.7631831409968139
aa(lp27
F-2.6876425923715415
aF0.51873199349369115
aF-2.2969202765304688
aF0.21461621368896347
aF-1.6123880233710388
aF1.6322678573422507
aF-0.0034849665786715824
aF-3.6942354916310571
aF3.3166935809218434
aF1.6545587603626706
aF-1.7975045428950616
aF-2.9528535777858469
aF4.8111777906032449
aF-3.6325838663240773
aF-0.24097515900789857
aF-5.6627444805615843
aF3.143267074573227
aF6.1103729327767233
aF-0.41897466738836409
aF0.076873430423275144
aF-3.5944738943574928
aF2.4376557310502083
aF2.821179611694125
aF2.8635739098821977
aF-0.067335241887158351
aF-0.23608431142966263
aF-3.1046530925618163
aa(lp28
F-0.24549898352780916
aF3.6653495557974165
aF2.0834618516900121
aF-0.40025336083838597
aF-1.4745406497429585
aF2.0246905970532638
aF0.74324604477024037
aF0.87563339763127146
aF-0.726390016301801
aF2.9752298944201341
aF-0.589877131318297
aF-3.3560056837302294
aF-1.3989793738028713
aF-0.38054628063650042
aF-3.4730752125521245
aF1.7668015734563856
aF-0.86398453844126566
aF1.3264863686261206
aF-2.7717595870189289
aF2.4898510468527175
aF-1.6548384006169696
aF-0.58002127725736663
aF0.43677725240510218
aF6.2738137121987574
aF5.3859110053209669
aF-1.5835722070927427
aF-1.3000075531021897
aa(lp29
F5.5120219134098942
aF-1.1180431509459672
aF-2.6673216840325802
aF-4.5537385822568401
aF5.9534581013799581
aF1.4143037122724753
aF-4.6109554837358129
aF3.5523358069776916
aF-0.46113448270101476
aF6.674509584399221
aF3.9313948644863776
aF-1.827784813398448
aF-7.8599119154482615
aF-0.29907202995597776
aF0.56954180211834071
aF12.988914642804907
aF-1.0905726654459968
aF-0.28999283332562281
aF-0.72121591785193717
aF0.33118893666599042
aF1.5210967467860728
aF-1.3973721746877608
aF-12.837954725170171
aF-3.1934855921406187
aF-0.19730556577962746
aF6.594865611697907
aF0.26561270840499906
aa(lp30
F-0.0176532062917195
aF0.78899709780381488
aF-0.20601273984677651
aF-1.3525595811956246
aF-0.68157645923114185
aF-2.2853123887695861
aF1.8902092438469804
aF-1.9308508482542603
aF1.2858323985164526
aF2.7495421606515333
aF0.97776307989072175
aF4.1030689058565608
aF-0.72876107642258714
aF1.3132284486612016
aF1.6898196632820115
aF1.1352766116895059
aF-0.94169103740755855
aF0.29063033956979084
aF-1.6141980940528107
aF-0.53535702032878418
aF3.5054645600513812
aF-1.1344587141188209
aF-0.70796213401333807
aF1.2240589360842622
aF1.0956796920568534
aF3.7761747924629088
aF4.1193010747109478
aa(lp31
F4.504397525218768
aF0.90296084793434606
aF-0.16759644401106694
aF-0.47380140174064161
aF6.9378365706813634
aF-0.97097375303805955
aF-5.4813348942611455
aF6.5562847398814901
aF-2.741073123451609
aF7.7309503000594226
aF4.9109615857493933
aF-3.1504341987910216
aF-11.850918985647857
aF-0.058036339126371642
aF-1.4599257177587963
aF7.7416584040637435
aF1.1732586214489442
aF-2.0503687548704517
aF-0.63017968774740263
aF1.8573049780407964
aF1.4734162853961117
aF0.42624044716732934
aF-11.345848780008977
aF-2.7906322231239611
aF-0.17719446714265857
aF3.0817967504833956
aF0.30419796324118331
aa(lp32
F0.44949177231091669
aF-0.67525607361326789
aF-0.70173156222677768
aF0.81386930275475977
aF-1.159638293261936
aF1.0473099648125601
aF-2.0747203581698375
aF-2.860616253876441
aF1.7489591832880476
aF1.5674162352787613
aF0.48330253655681571
aF-0.49495787980824657
aF7.9286194129264116
aF0.07938116618729836
aF0.078133474445469128
aF1.6696989537892708
aF-5.2484667358402284
aF0.8312489854924564
aF-3.3025740301117996
aF-0.42257433869077526
aF2.2100428905377161
aF-1.7311265087597167
aF1.0404435986568754
aF4.4501733517360291
aF-0.48264115443222444
aF1.3972104501974805
aF-3.4234200774068118
aa(lp33
F3.1886889683978437
aF4.8383260425085828
aF2.5075777796579963
aF25.066695873573078
aF3.1776175951698828
aF-20.877653850008478
aF-2.6367309739432407
aF0.90825047845302209
aF-5.0293554880205855
aF9.3351009894818251
aF16.05191407116078
aF-7.6127447799581907
aF-6.2675300319168787
aF4.86774822493995
aF11.76895689692107
aF6.3514066289464157
aF7.11866492669387
aF-5.1088578275966725
aF7.1814312371565219
aF13.365918399703302
aF-0.22754016043432457
aF2.8999472990208317
aF-12.484863584061307
aF-10.066431286831589
aF9.444770699177047
aF3.1673179994145082
aF-2.7644554903016698
aa(lp34
F3.5330562113458126
aF6.4787583810910929
aF6.2781261815251135
aF19.83007681705547
aF2.6223043560012842
aF-20.71180322460366
aF-3.9007177137381199
aF4.3078831238094111
aF-3.8925469395440704
aF9.2760966664491242
aF16.21464161511944
aF-3.8927859051308458
aF-11.310759725520974
aF6.4708049918797803
aF11.594386056676251
aF10.136657338317134
aF8.2033958772413111
aF-5.5596287582604873
aF8.7270398562238203
aF10.276752231785679
aF-1.8820027404816484
aF6.1367740696072133
aF-12.772603396427117
aF-9.0754411868846319
aF9.5627359728393273
aF9.0771280767859785
aF-0.20529699663510173
aa(lp35
F-8.0665876937563095
aF-1.9787281357785307
aF2.3709501866889569
aF-2.2376783720633262
aF-14.082143620925784
aF2.200982574198719
aF12.991953746306585
aF-8.9282533827283803
aF-4.4738000536680431
aF-3.0595425511982834
aF-3.1516419987742768
aF3.527424443566229
aF0.31154578706931291
aF-0.17287052704645681
aF-2.0346172415239425
aF0.065803833656909658
aF-2.8427500696210162
aF0.91087147149691239
aF-1.1944758364656376
aF-15.817432399798861
aF-1.29001329170636
aF4.297584660931296
aF4.1981826303706997
aF7.716850183170564
aF-1.4454022451486037
aF3.0384469640395997
aF2.9933111859657284
aa(lp36
F-2.5410291350822121
aF-1.3361235787423946
aF1.3928515840985574
aF-0.98496816003305898
aF-11.00118922494427
aF0.31061368509551229
aF10.746664263384048
aF-7.9580706679810582
aF-11.202407382242377
aF-5.9394139523910345
aF-0.75088116925643289
aF3.9524983048072229
aF2.410615717386499
aF-1.2038079534776103
aF-5.5246518949211199
aF0.41288898226825604
aF-2.493633757883126
aF0.45669459861999923
aF-1.3415503372564255
aF-16.468275502776514
aF0.036928413388074434
aF4.9406124723646414
aF-0.66550097514483963
aF6.6948200635837019
aF-1.3425993037130337
aF2.3247659350034215
aF-0.78390963249596712
aa(lp37
F0.98833895514214831
aF-14.524695954628458
aF-3.0881668554695012
aF-1.9626072887209971
aF0.47241250135597496
aF4.7859731691153895
aF-0.044411536070453825
aF0.69497024137252861
aF11.306617885307428
aF-5.7600630565510738
aF-4.140453689997158
aF6.4236166100793302
aF-1.3676158752962408
aF-0.32423412695739923
aF6.5149108168904268
aF0.63247520318014128
aF-18.93808046259791
aF-0.15073786869262651
aF-5.4248923819760524
aF3.3011738253157095
aF12.838883519111954
aF-8.5240353132422229
aF-3.8765895588335746
aF-3.8126024377741481
aF-15.013083403310549
aF-4.393578574835125
aF11.871121109086593
aa(lp38
F0.60645380015416839
aF-12.486571680048659
aF-4.2901035492768038
aF-5.6556267818088468
aF0.63451874934259433
aF2.8286727616754166
aF1.4733851579196628
aF3.2091563000532166
aF14.115646231322565
aF-7.1990914724566961
aF-4.9460773152552955
aF7.3229643546455829
aF-2.741245472094648
aF-0.7149890354316768
aF10.945738019163885
aF1.2708669919980926
aF-18.442937647503719
aF-1.5343963755512147
aF-6.8596624501767565
aF1.1827840694764928
aF15.384190162443481
aF-8.7875426191294412
aF-4.8926214087842368
aF-5.712613517955762
aF-14.451896343725258
aF-2.9052108001670751
aF12.266398092481612
aa(lp39
F1.7065752105392098
aF1.476327230197541
aF-7.6286553345963606
aF3.8270430307576397
aF5.549883011617637
aF3.8657277486184287
aF-9.1332936038783128
aF1.5337583031812427
aF9.8843219209708888
aF10.749605744823167
aF-6.0974718366048331
aF-9.7991120484006906
aF7.9150816828899693
aF-8.4742816822839906
aF-7.1787972905976822
aF-3.7021235637876253
aF-0.67625746745734394
aF7.9780429212833219
aF-8.3161137269126328
aF3.1203402194633161
aF-6.5061215824209384
aF-1.7150090177439534
aF18.426181514013354
aF7.8370974395403339
aF1.2788759334478597
aF-5.421315186909955
aF-8.567515241053119
aa(lp40
F2.1510534127244174
aF3.4450138094988212
aF-14.491705487858839
aF5.4728888335150589
aF5.108820581985789
aF6.4609267679487337
aF-8.641205974963345
aF1.6216824462173944
aF10.887708354910833
aF8.3645010881577893
aF-5.2164881977082995
aF-11.461535206873508
aF7.82826102824398
aF-6.9304813406767236
aF-8.98581292713423
aF-3.416653894933313
aF-1.4118915896930124
aF10.181284662467737
aF-12.536704503726661
aF3.4439591822381015
aF-10.683753865695435
aF-0.21847303380944341
aF14.479369108407822
aF8.3330558760239075
aF0.90926206529655662
aF-2.5615003076239584
aF-6.7765935972300397
aa(lp41
F4.5162106097827328
aF1.0332999739049462
aF-2.6627950886424085
aF15.82365039877304
aF3.623187770972045
aF-18.738117245377605
aF-3.0210734533873858
aF3.0561822892158488
aF-0.3342578223849082
aF9.0381562361940357
aF1.197045843854962
aF-6.1093910230145942
aF-2.2762417379753055
aF-0.39988506769799742
aF8.6292005734211727
aF6.0729600033585998
aF1.3572679458432568
aF0.11259630860164341
aF0.54871730032373101
aF14.250689891241374
aF-1.5112712013035319
aF1.2679136252169538
aF-2.1165353871904724
aF0.47842285950939623
aF1.9023853076311468
aF4.0647286596089502
aF-2.4017883089272534
aa(lp42
F4.9006300085026115
aF-0.76333895430115983
aF-1.0639222884024842
aF14.627028061561363
aF1.4693121926145973
aF-15.134858719945969
aF-1.5188034351649831
aF2.0913293958305417
aF3.8129297351855396
aF2.7319367897667033
aF3.8340111589548602
aF-1.2723219641851664
aF-5.3360889045516835
aF1.3334103289003976
aF12.019954822148685
aF4.2384049980601226
aF-1.0023185772300998
aF-0.99260441950787637
aF0.098204949612952369
aF12.760028536587352
aF3.3978462464855559
aF-1.4060961985574481
aF-9.4507794212247571
aF-6.7472092713499192
aF-1.4753197704972978
aF3.9655597939053613
aF2.9256377416661059
aa(lp43
F-5.6277140271105557
aF-3.1474292137767739
aF1.4347725396296911
aF-1.1235483590474413
aF-5.1344074312988432
aF1.81819809029461
aF6.4865248558248858
aF-3.302675178724706
aF0.55030718149748692
aF-11.88556307662162
aF-3.1740154156155942
aF5.3023157285110329
aF3.1656817699443831
aF1.4789950293020231
aF-0.79691318320104143
aF-7.3425227145481884
aF-2.6741125246785682
aF-1.4314304179035142
aF0.73981680586412968
aF-5.5080953360228833
aF2.4327576197964671
aF-2.3499911956355808
aF1.8197083908941969
aF2.0033524668504965
aF-2.8897169920838222
aF-0.36355738948555594
aF3.2039030961828634
aa(lp44
F-4.6052805662028149
aF1.2649933653625793
aF-2.3412924491532126
aF-2.6533726701746061
aF-5.3791530296761021
aF1.7235112354873392
aF5.4592766860549462
aF-2.9388763355454044
aF-0.13167138234978926
aF-1.8444079746344666
aF-1.3278669792421727
aF-0.25881393850771495
aF5.6073749278095688
aF-1.9022002605345183
aF-4.1476051490144883
aF-5.2691837024782497
aF1.7391531832919205
aF0.60488836404428281
aF-1.7342763903757752
aF-11.194471819643292
aF-1.3409673815987879
aF-1.4834500766838419
aF7.0076324062294875
aF2.1267126320400931
aF2.0876889577868507
aF-1.4021580260738247
aF-3.1890418638572173
aa(lp45
F1.7529342361471738
aF1.5787146510205081
aF1.3156562324861316
aF2.6492767285083465
aF-0.0080972484499243404
aF-0.70737816960975664
aF-0.23924967302050754
aF2.2090750751610062
aF-1.586143323583133
aF1.8658307814275872
aF3.0869792044380899
aF-2.833763624935016
aF-2.9313034405904395
aF2.6153449959884933
aF1.8397856845897
aF1.0770891121383703
aF0.91717041220934803
aF-0.85926585133799005
aF4.6924944806634592
aF0.8848149192529472
aF-0.7597679918663891
aF2.4656414027132816
aF2.331542225533636
aF-2.092802632995538
aF2.2032905929547386
aF-2.2559269130417428
aF-2.8326246314146695
aa(lp46
F-0.12583161163423784
aF0.56425680104153397
aF0.8927350054264539
aF1.8298292752606147
aF1.0702505106414815
aF0.90870359396796063
aF0.43170436691676389
aF0.60177864235494616
aF1.789051741788042
aF-0.77703166634623422
aF-1.1750079588880411
aF-1.3794339588709235
aF-4.0940665958729676
aF-0.34998403217715768
aF-1.5482588276792553
aF-0.16540006074928043
aF1.8981250500899203
aF0.10990828228947494
aF-2.9324878522015285
aF-1.3262156122174817
aF1.1948048272432039
aF0.66397569983618854
aF-0.33103972868908915
aF-2.500514193692926
aF-0.59115566082421211
aF-0.2140317046653214
aF0.60753230832623661
aa(lp47
F-1.1429513281240553
aF0.67410600625392447
aF0.064272735295144073
aF-1.0031339335663723
aF-0.76786734373555754
aF-0.55186582008423513
aF0.91895351621542232
aF-0.86205329305752765
aF0.80282830373678626
aF-1.5563881542368587
aF0.58657906835198215
aF0.89473043632210125
aF2.3239316958686316
aF-0.52704190892854441
aF0.30587694833532525
aF1.4777430490156196
aF-0.19945392549668048
aF-0.18669221843626996
aF-3.1221424034829406
aF-0.32262689226091895
aF-3.3373793975323016
aF-0.8625121727069377
aF2.300464313381132
aF3.5119479047968025
aF-1.2252675708261487
aF2.2276244235860045
aF1.3579520921886656
aaa(lp48
(lp49
F0.13089644203080561
aF-1.7973123302087484
aF1.9556241619601782
aF1.6119314144603392
aF-1.0737044484981395
aF-0.43068617595007525
aF-0.21933550310767227
aF0.92416657897787846
aF-0.066285034643682794
aF-1.5250003989064032
aF0.3940408930773896
aF-0.27282519452698828
aF-1.639336739234114
aF-0.17778492371575733
aF0.4428094650552023
aa(lp50
F0.49681133821043455
aF2.072605328838828
aF0.40497111712360806
aF-0.53343404942396011
aF1.636894816546594
aF-0.50130224847253202
aF-3.4002555935641925
aF-0.20774553920335584
aF1.8636505797883236
aF-1.0284862905710697
aF1.0514731077348594
aF-3.0428514898734789
aF-2.2493749550592881
aF0.52965047884965155
aF-1.7489148737899141
aa(lp51
F-0.24107241385116443
aF3.4508859199386084
aF-1.4078939526171639
aF-1.8225759299983602
aF0.89111254482592972
aF0.62701718523343108
aF-0.17046381300680813
aF-3.1468790030142624
aF1.0256849044756613
aF3.969468953582131
aF-1.9677462901632747
aF-0.2070060722986104
aF-1.637028037651616
aF0.68539366525162726
aF1.3028482588168087
aa(lp52
F2.1073008561430013
aF-4.7724452599945746
aF0.56672958416546582
aF0.94083116855093119
aF2.8166991292347126
aF-0.76973183915846943
aF-3.9619140104310264
aF-1.3816370336373882
aF-1.9695110722989537
aF-1.6019658960511576
aF-1.4829208058910537
aF-1.5494713865360406
aF-7.4597130376531933
aF0.042827090009728876
aF-1.3530045290830339
aa(lp53
F0.8180229531348413
aF-1.8216484373998441
aF2.399235832319059
aF1.6723315810341053
aF-1.5025279697307752
aF-0.38838538748510459
aF1.0270746333333693
aF1.1226823823947611
aF-1.314916335947004
aF-0.43881096162274513
aF0.32998906012715101
aF0.44418833450149137
aF-2.5653841102233481
aF0.82278811822311049
aF0.2677990341229467
aa(lp54
F-3.3897054002762794
aF2.4560221872329118
aF0.28785487357451328
aF-3.0668588273089092
aF-3.498977616328248
aF0.6476706891712799
aF2.4617957029452535
aF3.3762686428224029
aF2.7821785830149039
aF-0.4924278585018344
aF3.3019754348122405
aF-0.89946730684983878
aF3.9181518296996996
aF-0.014919365954767528
aF1.8522717514049711
aa(lp55
F-0.82400382793018068
aF3.9598848526984711
aF-2.0155329397312767
aF-2.2845951352483613
aF-1.5371813105614023
aF-0.1952270941903208
aF-1.5173238820392965
aF-1.4637465532863099
aF1.3461004308270037
aF1.1304583761056861
aF1.1959698843839792
aF-0.65938042693900778
aF1.0276403866270638
aF0.31396241970566441
aF0.76752918324602526
aa(lp56
F0.50158794966373377
aF-1.5841761483694623
aF1.3827523909204742
aF1.7925346686586232
aF-0.6250076827981389
aF-0.56848713627780467
aF-0.31155080435780885
aF1.6576401507112748
aF-0.59423646623261661
aF-1.2209617838665958
aF0.38036143398813077
aF0.72267030503084762
aF-1.1999159126960259
aF0.86715558765544909
aF-0.083870986173384995
aa(lp57
F0.076058111186012911
aF-4.8945907297970361
aF2.0609244138490377
aF3.794118826383357
aF-2.0655358831825188
aF-0.24555429182062971
aF2.0759900233065149
aF2.1027027558091942
aF-1.8599275924862448
aF-3.1441081657758465
aF1.4370333450483967
aF1.8297889582665807
aF0.39006925072821225
aF0.69457844078559727
aF-0.1028245585186275
aa(lp58
F0.81093486624909261
aF-2.6639161780521956
aF1.2583996392638266
aF0.75233321558662436
aF2.1686137790798927
aF-0.62223411137470153
aF-2.3915703643806911
aF0.89058375778149079
aF-0.60983349879816451
aF-2.7265346850668655
aF1.9587910676829106
aF-1.6907724894013756
aF-2.2606897122494543
aF0.3372948683847915
aF-1.5441928929248809
aa(lp59
F0.78636492914037037
aF0.97909179408169011
aF-0.64734282212200334
aF-0.24525575771588545
aF0.81184406579402113
aF-0.1133830796711711
aF-1.9802197296017527
aF-1.4730528548793684
aF-0.83281481535412083
aF0.9162904401502685
aF-0.83646564361329578
aF-0.62634761269451245
aF-3.3480433973591324
aF0.22290269760166861
aF-0.13279784046748616
aa(lp60
F-0.92499801921982117
aF1.6354848115631633
aF-0.81295470933067782
aF-1.7455954180508837
aF-1.4069977952968782
aF0.44931228160078801
aF1.6606330870158079
aF-1.9963864422958519
aF1.0240352772281989
aF3.0658705263031081
aF-0.98519063880483593
aF0.12843760232012846
aF0.1674325837582302
aF0.39774266602700747
aF2.2450255725218895
aa(lp61
F-1.1251898642534761
aF-0.40053942259969655
aF0.11064010873577693
aF-1.6622619499911682
aF-1.4748020092842433
aF-0.57580636859128131
aF-0.21680254844295604
aF2.8329321431893817
aF0.5497472850799251
aF-1.9526200462753465
aF1.9464744963941822
aF-0.9189291545238969
aF1.5685840867450558
aF0.5703306335737014
aF-0.36736611284590587
aa(lp62
F1.3352018247062349
aF1.4987389327596361
aF-0.47958254111817017
aF-0.90442941579529845
aF-0.0090961357952882554
aF-0.064794500612385217
aF-0.7157552183496726
aF-1.6836162000054771
aF-0.69627810101186716
aF0.75574533770275276
aF-1.292923431870127
aF0.75373421871651347
aF-1.5961077481532508
aF0.45555681070660287
aF0.94603599031562502
aa(lp63
F1.7925596073766681
aF-1.8749766940053889
aF-0.54610573183582056
aF1.7951079389465368
aF-1.3143220149855295
aF0.37940889116215015
aF-0.65102985680758274
aF-1.969392288102672
aF-2.0186394249747179
aF1.5819800227933052
aF-1.2341550872693476
aF3.4600080082740843
aF-2.4938385875522551
aF0.10694207624351058
aF1.7003305612823469
aa(lp64
F2.1248280931978334
aF-1.356698447575182
aF0.5658549549790598
aF1.6175270168877942
aF1.1181718872785569
aF0.23160800089779265
aF-1.5523076935073616
aF-1.3879963847866448
aF-1.5448553050586138
aF-1.2355826594899926
aF-1.3101253556605099
aF0.47072842946867782
aF-2.6774421233341714
aF0.54811794039029693
aF0.036156679217754735
aa(lp65
F1.3212298324339848
aF2.3920239635387106
aF0.83555186278684324
aF-0.49598593672434832
aF3.2703719123194315
aF0.059799623934501257
aF-4.7183109701739845
aF-1.9018797101713005
aF1.5188960239792426
aF1.0328312760327565
aF-0.68661572293317596
aF-3.1983619808453918
aF-4.050835025462316
aF-0.0055099448384027033
aF-1.6887332768285161
aa(lp66
F-3.2722385101094513
aF1.2103415933623471
aF-0.036973814715098974
aF-0.75308860400304778
aF-2.9778065677948149
aF0.33095579529909847
aF1.0706042279810251
aF1.0961508841024967
aF1.7893809173627693
aF-0.72510296030716803
aF4.3335166374652747
aF-1.8097609232095093
aF-1.8556895376644793
aF0.0099800495928377021
aF-0.36156740077511212
aa(lp67
F0.70413264110018026
aF1.9309425613818654
aF-0.58004874302190146
aF-0.84635654387916381
aF1.0529640437755898
aF0.55988425588455926
aF-1.0809572209201537
aF-0.87199029013500062
aF0.48777443776234425
aF1.5185222266617735
aF-1.2992430187203197
aF-0.7894529913353856
aF-1.709627659142116
aF0.41121865713469052
aF0.61692356802751958
aa(lp68
F2.1501853155595843
aF-3.7708163255120519
aF2.8706218162215804
aF3.2550363253679593
aF-0.075810680710083969
aF-0.10270321062320734
aF0.11625355641014144
aF1.7876144706870758
aF-1.1456229263961017
aF-1.2625026982477427
aF0.41506675293515982
aF0.10114830612951428
aF-3.264066866696008
aF-0.13391816766302939
aF-0.39743308235318381
aa(lp69
F-0.38853748895721346
aF-2.4488972017288257
aF-0.48434220676838607
aF-0.22511731994410772
aF-3.0478288979099175
aF0.042264692197453213
aF2.4482309760707142
aF-0.54140976874555746
aF-2.6590833924501265
aF0.88203192571480848
aF-0.95910298429049667
aF4.1929703491838355
aF-0.80431373648016513
aF-0.32854725132176832
aF2.9209735148136877
aa(lp70
F0.56869971208478309
aF0.50749252293839153
aF0.0094958893155856813
aF-1.0345731208065319
aF1.2409296701716646
aF-0.17373583095098413
aF-1.6215439395344284
aF-1.0024147678351443
aF0.18616009773879449
aF-0.54280291704006667
aF-0.48730785837055723
aF-1.4000980151740627
aF-1.9553829865827272
aF-0.14287175236683108
aF-0.56543586929030631
aa(lp71
F-0.84324507038877694
aF1.9088535923551475
aF1.4216472365361417
aF-0.49462208116842232
aF0.2144714303560793
aF-0.46639781341014125
aF-0.41308588879567421
aF3.1535628015599646
aF1.5746304539710945
aF-4.5417657307575805
aF3.3312012155737518
aF-2.8100062872417504
aF4.7187146826747517
aF0.56024816565602353
aF-2.249686449730266
aa(lp72
F-0.85583803349452081
aF-0.19405081275563893
aF0.48305530309074945
aF-1.6450442038991284
aF-0.073188608231524427
aF-0.24256667859097569
aF-0.79920965096779117
aF1.8547929235728833
aF1.19874586282176
aF-2.1436014950221187
aF1.9093955995971925
aF-1.3105448389836423
aF-0.030308779004017468
aF-0.057447708855175979
aF-0.99430225520906579
aa(lp73
F1.0050504026205291
aF1.3650259954006982
aF0.4950266063229275
aF-0.33955454460984308
aF2.6038612506788579
aF-0.22553600059639844
aF-3.0203285112334179
aF-0.83065509870803089
aF0.8563085852857224
aF-1.2963202526691595
aF0.014367167965014532
aF-2.9567249575354442
aF-2.1592712175146866
aF0.23587724063594601
aF-1.1184004414992963
aa(lp74
F1.6366925737702378
aF-0.85467488874317188
aF0.24524609782837337
aF0.49277461441829629
aF1.4288287293772663
aF-0.025590771200281977
aF-2.5447364291281542
aF-1.5937176620064464
aF-0.41888829735726896
aF0.11103609503931047
aF-0.90013424262473973
aF-1.0352496503126303
aF-3.3753970503243149
aF-0.35694752366326171
aF-0.34282567928867469
aa(lp75
F-1.0476015560172518
aF-0.71013382225672583
aF-1.0363607985806911
aF0.24576342570824145
aF-2.1376548195071559
aF0.28122527774304901
aF1.8580563939486296
aF-1.3663454269445083
aF-0.92619590144212871
aF1.3925338107882808
aF-0.46914866066732996
aF1.7701591802982293
aF0.65396718680207688
aF-0.013798454419522954
aF1.8593927574379745
aaa(lp76
(lp77
F-2.1566328998792512
aF0.47595722656103601
aF0.15799323595510376
aF-0.36956778939444268
aF-0.51517171056247857
aa(lp78
F1.5728517813463612
aF-3.7387941078948708
aF1.7101049204367964
aF1.7197691576107068
aF-1.155298867482011
aa(lp79
F-0.41332282562819816
aF0.7159518616416044
aF-0.48999644263816949
aF-1.7234990255031957
aF-0.82229776811946353
aa(lp80
F-2.1561648580109058
aF2.1790734536049801
aF-1.4984406478943422
aF-1.3398322576601105
aF-0.81548598090389468
aa(lp81
F-1.8122757541022643
aF-0.66628077100020355
aF1.818438304681756
aF-1.032078033828989
aF-0.014898300753426347
aa(lp82
F0.16175420815039041
aF0.19607313303556284
aF0.1237887857311193
aF0.044558992982959296
aF-0.35588237885303237
aa(lp83
F1.789768792866369
aF-0.058549293729518566
aF-2.0789184724145868
aF-0.75492150244170098
aF-0.42305614707689299
aa(lp84
F0.82599590043280802
aF-0.028610221061304886
aF-1.2539279210318193
aF-1.7049592631549313
aF-0.47485638564012339
aa(lp85
F0.32366825946594646
aF-1.1603521230420082
aF0.68498017620117735
aF-0.49818157974167626
aF-1.3115270247813202
aa(lp86
F-0.58700779391541014
aF-1.0915464697078767
aF-1.3489989328259182
aF1.6286491012974991
aF-0.51620152010208742
aa(lp87
F0.95774998721752613
aF0.68776278512742883
aF0.66662110069445013
aF-2.2296034080896621
aF0.17739812113242467
aa(lp88
F-1.0165749219208413
aF0.54593585069151429
aF-2.4536876244266126
aF1.7682105502374768
aF-0.024534700343519556
aa(lp89
F3.6048020148313622
aF-2.0136562632677535
aF-1.6538811016564974
aF-1.4487244367880223
aF-0.35978403850942886
aa(lp90
F-1.736924139205515
aF-0.8398529665703075
aF-0.9762830835402676
aF-1.2342074821334559
aF-0.7242104100485991
aa(lp91
F-0.054627563012992729
aF0.11625941566690028
aF-1.2159494148549124
aF0.25547577965046508
aF-0.3766588682276214
aaaa(lp92
(lp93
F-3.4131061228382031
aF-3.452795777324011
aF-4.5011035084062154
aF8.3041935909107334
aF-2.1553353778951023
aF-4.4240339797202344
aF1.0348057093934189
aF-0.44806177940247233
aF3.7970649003791217
aF-0.21823842175257657
aF4.0318210019538085
aF1.4686775189669832
aF-2.7890510521557959
aF-0.7220250780459716
aF3.7436454963335581
aF3.0511634688139271
aF-7.5529104573658197
aF-1.2227038843529412
aF0.6515610625341145
aF2.1265192001370665
aF2.8785357724945526
aF-1.6314895683087582
aF1.3881793395349125
aF1.6136049052310568
aF-2.4016823802066769
aF-0.074181380463613597
aF1.5129469778735269
aa(lp94
F-0.071893367438059783
aF1.4658230104763705
aF0.29480699174539154
aF-0.9866367050130731
aF-1.2530806225218512
aF0.25714058300600195
aF-1.1677832696946626
aF0.11939791374240702
aF0.002050396533392819
aF-0.25301620210330578
aF0.73049690214417706
aF-0.40224497497567024
aF-2.9240066549725281
aF0.45832766828381166
aF0.37329425560109769
aa(lp95
F-1.3867291809500044
aF-0.2046714760861614
aF-0.64167996506111602
aF-0.98338865967004008
aF-0.74955701209430636
aaa.