(lp1
(lp2
(lp3
I0
aI0
aI0
aI0
aI0
aI0
aI0
aI1
aI0
aI0
aI0
aI0
aI0
aI0
aI1
aI0
aI0
aI0
aI0
aI0
aa(lp4
F0.0081705315114519502
aF0.24633537017828103
aF0.49454449246202625
aF0.48047724408319409
aF1.7516704271603165e-08
aF0.026818024551499925
aF0.59614184996722397
aF0.019384440443145509
aF0.80012571236473617
aF0.0019467392545554193
aF0.35470054233652459
aF0.22805277674921082
aF0.16888598962141446
aF0.84542380429809194
aF0.9760741441686398
aa(lp5
F0.9221757600526812
aF0.68596839815933941
aF0.91119383677507582
aF0.055142878349023552
aF0.28156375073747347
aF0.36620557383971797
aF0.98767655483600314
aF0.0066436647172227791
aF0.088390072860797475
aF0.26657945633525715
aa(lp6
F0.0051185248474816172
aF0.075168308200583719
aF0.2793380816390087
aF0.4618899615599959
aF0.0077845583195674823
aaa(lp7
(lp8
(lp9
F13.468638443661433
aF-3.3996854570579678
aF23.477445625173257
aF6.9605173782163394
aF-1.4178848379905375
aF0.41776696080827819
aF-19.897295593648067
aF11.36293440931582
aF-11.129638203262136
aF-19.6226779807272
aF-15.301439873300831
aF12.673299427714083
aF-10.387138477015217
aF13.507272036419863
aF-9.6130711513560296
aa(lp10
F10.546614737433611
aF-3.199748105844622
aF12.087109735391975
aF-1.9896163031304082
aF-5.045314379866773
aF-1.5389078194477401
aF-4.1260586666003096
aF3.8184479371235645
aF-9.6285245134104152
aF-6.731907821306585
aF-4.432560891462451
aF9.1880098844338054
aF-8.3373032300134291
aF4.5750243870237259
aF-7.1366938147436159
aa(lp11
F1.4399753559455
aF13.729856686407233
aF1.0371981022350092
aF9.6156242298976284
aF-4.1231827272434911
aF10.88053160691147
aF-20.533575346107973
aF-21.609795259625553
aF12.595407752104098
aF-20.365372737509446
aF10.960801110468747
aF10.189829980682633
aF17.556155170689717
aF-8.230388330439677
aF11.077526206602155
aa(lp12
F0.89778036143590556
aF3.3011591276089565
aF0.94176888793922509
aF6.7156230531112646
aF-5.6742887071053127
aF12.787044566245994
aF-5.1566965089040702
aF-7.8721817559934175
aF5.1672032568928525
aF-7.4607119647276248
aF6.1447116404836901
aF9.2837917025428833
aF6.5363526636677234
aF-7.2736596251248375
aF4.2382456387624305
aa(lp13
F-16.37814605103561
aF-15.186718242264265
aF-15.646335296607852
aF14.264244195776762
aF-7.0544832509278539
aF3.407464584445457
aF4.9235229174124813
aF3.2044267998149167
aF11.992246105303524
aF14.955097340949656
aF14.08744584992856
aF-22.461750288215654
aF-8.2951307254254321
aF16.163560028337322
aF-9.3446439065653006
aa(lp14
F-4.8975693024765095
aF-3.6285245373272592
aF-2.8737398825479596
aF12.374663331776818
aF-7.8198249449666397
aF-2.152962796841873
aF-4.1705942180674587
aF-5.1046585031013132
aF2.7186545459291893
aF14.778265976352182
aF8.0349001886628422
aF-6.1801342603215303
aF-5.0566066334237121
aF-2.8837178681282656
aF-8.5016232470680446
aa(lp15
F-14.742999716491381
aF7.0946699624698262
aF-14.088976513717693
aF-18.115712536646768
aF19.496524094141584
aF-21.161710490808684
aF11.917469535090405
aF8.372415760261763
aF-8.5075369032772148
aF13.797856848928726
aF-12.054670006202175
aF8.3357118628782469
aF-8.1391324142020451
aF-9.4134838729403256
aF18.359203856030785
aa(lp16
F-11.274897382567692
aF8.3829683398723027
aF-2.9476122293263303
aF-8.7085465681695613
aF1.9911851663699027
aF-2.9495745697283287
aF14.060402675333455
aF3.2965627777316024
aF-0.68117312192594026
aF-0.34800279678504398
aF-3.7041179907703752
aF1.8336698838031811
aF-5.2315249100656809
aF-3.0228402022660839
aF3.7268100442500485
aa(lp17
F-6.0088389685508758
aF-1.0080799381784618
aF-11.527967332279369
aF1.7543101365434499
aF6.5457171084512407
aF-2.9559836000152711
aF3.0186798749534045
aF-3.2752646443428195
aF6.1852189011312335
aF5.7215806623625172
aF14.165574971688979
aF-10.406986117623633
aF4.3011034392514933
aF-9.0005182584349139
aF8.7959090494773218
aa(lp18
F-8.1017303242358043
aF0.28267762636550958
aF-10.691283436939734
aF2.1643999525812365
aF3.2086949129231712
aF-1.5459576848849759
aF0.50259054840812412
aF-3.5789112883563217
aF9.4189988294574256
aF5.5187337399897265
aF11.736755888756882
aF-7.6490162797272845
aF2.8977871217255147
aF-9.7102325497036457
aF8.2150221030382458
aa(lp19
F-1.8923817011781041
aF-4.7308017619088911
aF-7.540548090920276
aF-5.4055818061171133
aF6.049037777329187
aF-15.45522788391232
aF-0.084064396816522335
aF7.9791872695167214
aF-6.9844051111466614
aF6.3679574680066144
aF-9.4217845026127929
aF-7.546325945877264
aF-9.1920345040055853
aF10.701803356860458
aF-3.329501962448826
aa(lp20
F-0.83021205583438829
aF-4.1458951338944008
aF-6.2047699385705739
aF-0.4951365482276332
aF6.1892382815829485
aF-14.336225227441172
aF3.1525352124510473
aF7.7721818946134711
aF-6.7021603138267611
aF9.5606779601273768
aF-7.3899822906072909
aF-7.9760658175474219
aF-10.440824124083864
aF8.4938894193710066
aF-1.6478207218736842
aa(lp21
F5.7991054390906447
aF15.094232817445146
aF1.7422991266185079
aF-5.8957297541869957
aF6.1705761503986425
aF-2.1664543211923233
aF-4.1685210136574655
aF1.6822495192729476
aF-6.0172473758528353
aF-11.894536495537098
aF-4.1966706672808431
aF19.989783629085718
aF2.5613479815375721
aF1.5130750693625978
aF7.2949532861466073
aa(lp22
F4.1892633724388748
aF10.867918681483083
aF1.8679139078432696
aF-7.5387852167706813
aF7.8053191228748169
aF0.20041860958127589
aF-0.67931633110196032
aF0.70028411462474527
aF-5.9369607240887543
aF-13.138396622323999
aF-7.4707609173458289
aF10.307289450476922
aF2.8665189182519617
aF2.4322033888426962
aF5.9472433219767469
aa(lp23
F6.467809760166876
aF-9.9983885665147305
aF2.7156650453548812
aF6.8560743814184235
aF-19.8513419328184
aF-1.7131118937033594
aF-13.17807632669918
aF-7.1880577776501591
aF0.83970327470906492
aF-6.8912714587663411
aF1.6000468358540378
aF-3.6494787811736416
aF3.5725218059572303
aF4.6353132353289705
aF-0.91747993408362871
aa(lp24
F5.4373834105602583
aF-10.345267569112062
aF3.6400159790711246
aF7.3328891989127669
aF-20.17180735985422
aF1.0404909884198434
aF-14.309280864422382
aF-4.7583167943891631
aF0.24611823418422843
aF-4.3562334009057784
aF5.2925286825309596
aF-3.0019252380708159
aF0.61035140299376101
aF6.8029674140390046
aF-2.3191703084930086
aa(lp25
F-1.3585343825787799
aF-7.9462854621980163
aF0.00030279128180868046
aF7.8908341669552788
aF-8.6514489652538469
aF-0.1215155733093691
aF-12.268403135765473
aF-7.5003724094951609
aF8.6796245865223991
aF2.6839420079939584
aF12.430242624383739
aF-7.0684542751018027
aF3.9503737359881761
aF-3.5513530571026446
aF5.1065065752022258
aa(lp26
F-2.0324500389064246
aF9.7462969797198475
aF-2.8262155093597685
aF-7.7890913523740117
aF10.03643445782812
aF-0.78017285746657694
aF-0.59548200054099487
aF-1.9590590980115112
aF2.7350490917807324
aF-1.1581959930999934
aF2.116898851845836
aF4.2408033088065817
aF6.0466945281811464
aF-8.1589910186979999
aF13.393011426096644
aa(lp27
F0.052848408721120059
aF8.6385634322512903
aF0.19515984210330151
aF-7.4659960781237986
aF14.297192232923523
aF-2.2369379790338813
aF-2.4020412977622918
aF9.2571139721994715
aF-6.1936515863547967
aF-2.982266896485958
aF-7.0531169354824108
aF8.7247516165133909
aF-4.5539638960192974
aF4.1658882880776149
aF0.67219749087445413
aa(lp28
F6.0210257921581594
aF-10.484382383645872
aF3.1986944482873065
aF8.4197982370265105
aF-5.2821872743866534
aF1.3747699092854846
aF-2.2433335734305877
aF8.7547115163115237
aF-2.7936485617233551
aF-0.054641880777355781
aF-1.3493757435961073
aF-5.2695878088152979
aF-5.4875596098693649
aF10.950250349857365
aF-8.1565328710434262
aaa(lp29
(lp30
F0.53200262709176382
aF-2.9015501641805401
aF-0.38698468411449444
aF1.5986446935355061
aF-0.29464086991084898
aF-0.36103198142531101
aF0.40206559315549056
aF3.1005182602907979
aF0.61292975846304598
aF1.8233133793304068
aa(lp31
F0.1804943783848785
aF-0.83076110428902983
aF0.21053711349919335
aF-0.94774841613633998
aF2.064567173319698
aF-2.2343078072004956
aF0.84201566074873258
aF-0.6118764247515005
aF-2.0546010216128154
aF4.3721536159894292
aa(lp32
F0.15925619659851797
aF-1.1331315639133031
aF-6.1821599759161083
aF-0.9242480028361344
aF-1.2541858530751371
aF-0.81140741207506828
aF0.89843001228842634
aF2.3824421037800247
aF0.10932978822874337
aF-0.51076174088420379
aa(lp33
F0.31838621944776985
aF-2.1726127945773075
aF0.49662133243341006
aF0.97168034543484583
aF-1.2556769969387407
aF2.0260715908219646
aF0.83519486872525017
aF0.83090761074860287
aF1.5479968722056172
aF-3.582952331966105
aa(lp34
F-0.08232504404442513
aF3.4042393962855972
aF2.2211675262472443
aF-0.77949254142188606
aF0.4180794931594925
aF-5.5575709396743989
aF0.59307688180690421
aF-2.7033880162450417
aF-0.86272186340511958
aF4.0122139090973432
aa(lp35
F0.74485139568311431
aF-6.642602817397977
aF-0.39023255306463317
aF0.0036008738989884077
aF-0.51297034435631683
aF2.4706133015521061
aF0.6190962125825632
aF3.5218401553196848
aF-3.555649406056915
aF-0.27898385550930122
aa(lp36
F0.65089521776763504
aF5.8847067240137312
aF0.31602252727208935
aF-0.19665282641446821
aF-0.46901422772513679
aF-6.6903178079271513
aF0.32589446857316884
aF-8.0450238417240385
aF-2.6514771497960798
aF-1.0372587052563755
aa(lp37
F0.64805426836257629
aF3.1458044030157093
aF0.10104763942095887
aF1.6142000026393604
aF0.62030948279610532
aF-1.6716774626078366
aF0.40614328168670716
aF-1.9679306129023229
aF2.6961471898503953
aF0.81926751828089328
aa(lp38
F0.61474360539313466
aF-0.51061657293886908
aF2.9942870609897709
aF0.12717401739535783
aF0.85903824924081562
aF2.4897494461014955
aF0.74572304328067673
aF0.83669894911935383
aF-0.4778228006184686
aF-0.74215126567055956
aa(lp39
F0.44718766051654418
aF1.7282487433245712
aF0.41854609997764386
aF-0.80250922379211131
aF-2.2684527601964919
aF0.1364016336350754
aF0.69240905769130134
aF-7.2730009605259145
aF1.7027567143596052
aF-9.1356473479371232
aa(lp40
F0.039794559709730747
aF-0.75781378961550838
aF3.4415026238653996
aF-0.93074337585570022
aF-0.30572987234987375
aF3.2959276942282649
aF1.0108840284001119
aF-0.19815181110686406
aF0.36412074502802311
aF-2.2805819240569316
aa(lp41
F0.54280034413356038
aF-3.7113937574878486
aF-3.2798781237973498
aF-1.6733737576876051
aF-0.18071970415442848
aF-4.5740547854990981
aF0.42440036176344387
aF-0.53199936875101494
aF-0.72751040127039956
aF3.3779892717113169
aa(lp42
F0.074264550716852978
aF-2.2560393454969514
aF3.4840694314068354
aF0.16565449581769379
aF2.045790597475321
aF1.4335405436388713
aF0.73992035309204818
aF-0.17811389770761013
aF-0.43741661998821979
aF1.6886642184423968
aa(lp43
F0.11199577813508529
aF1.9124746762137397
aF-2.6618597432049746
aF1.4355955469218229
aF-2.3279021025577515
aF0.72429002077919413
aF0.24812545356323409
aF-0.73011127801104014
aF3.8727817279435994
aF-0.39450385823018885
aa(lp44
F0.04409164407137011
aF-0.40428451349013728
aF2.7791135110944309
aF-3.2639321176561804
aF0.79100226451170297
aF0.077184887648769296
aF0.73861100084547238
aF-1.5761132284014951
aF-3.901577757840399
aF1.3077921730074544
aaa(lp45
(lp46
F-0.5634124780120201
aF-0.76115296610267225
aF-0.64598534273663677
aF-0.54467563325167101
aF-1.5552231338823819
aa(lp47
F-1.1032510826862123
aF-3.6884320100715309
aF0.22207525278699702
aF2.0899532301466355
aF0.073081176525948241
aa(lp48
F-3.0736610305772234
aF0.99317284844716724
aF1.0219890957018709
aF0.71191329304417239
aF-0.70156060135875375
aa(lp49
F0.41175171376496517
aF-1.56730713346607
aF0.37083618751356867
aF-1.0412502027793862
aF-1.4957566485113762
aa(lp50
F-1.0033667876819792
aF-0.57685200745422394
aF-1.4381662594114208
aF-0.053151660225037881
aF-1.3872014064117333
aa(lp51
F-1.5387779015157266
aF1.1919595303722597
aF1.6177032477454716
aF-2.9108248093409324
aF-0.59285270777075827
aa(lp52
F-0.91083500173430665
aF-0.93384862164989957
aF-1.0531660376182028
aF-0.93027358809187588
aF-1.9260629256030535
aa(lp53
F0.60682572152945002
aF1.1097979272806289
aF-0.80580611580382144
aF-2.0893715851973744
aF-0.064179880011598037
aa(lp54
F1.6851525643515375
aF-2.3959301510477173
aF0.65392635436178814
aF-1.1494625497395634
aF-0.56915941401578318
aa(lp55
F1.3946803167452602
aF0.71368361171896411
aF-3.5418224428574376
aF1.0203188487689223
aF-0.70954518401990063
aaaa.