(lp1
(lp2
(lp3
I0
aI0
aI0
aI0
aI0
aI0
aI0
aI1
aI0
aI0
aI0
aI0
aI0
aI0
aI1
aI0
aI0
aI0
aI0
aI0
aa(lp4
F6.2191340140116501e-44
aF1
aF9.255656021910095e-28
aF1.1985803384359252e-46
aF1
aF0.99995069322229135
aF1
aF1.2037515052440842e-05
aF7.0822000077877727e-42
aF0.99999640167502568
aF2.2231713574624405e-30
aF4.0186325863279415e-18
aF2.4274939795400145e-21
aF1
aF3.0453713246759081e-15
aa(lp5
F0.0043258412736847706
aF7.5895404042784661e-07
aF2.8773640317887545e-08
aF2.8190729938825545e-16
aF8.3088446198713328e-05
aF1.621391989836949e-11
aF1.5802859519513294e-07
aF0.99999999422479191
aF0.063646717216842369
aF1.1921427691426488e-06
aa(lp6
F0.057887050541931398
aF0.13825884508476086
aF0.27760465253997046
aF0.17753769363367833
aF0.0039944700597038365
aaa(lp7
(lp8
(lp9
F-233.24674623150474
aF-94.448195504023531
aF33.087561052730393
aF157.60192966935611
aF102.87293592389489
aF-163.71237634784188
aF27.907218641268766
aF54.054437577162496
aF115.1537886236667
aF159.61392462652265
aF-44.458268303926275
aF-188.17940188583978
aF51.33741100316076
aF50.092517217235645
aF0.068097453778017653
aa(lp10
F-77.642853181708219
aF-75.811874263828742
aF-55.569191654149243
aF54.557973642367095
aF35.481862969382256
aF-151.92484265439182
aF17.975105841811697
aF-49.500522895127141
aF79.445183269348888
aF97.082916215383207
aF8.7614674651621556
aF-40.137480395946987
aF21.168677014373561
aF-2.6893170566236226
aF1.7952704450691246
aa(lp11
F-97.397928116465849
aF126.22707937337199
aF118.47150317515869
aF-139.78707476888471
aF-191.8867599307263
aF94.138184807018163
aF-6.6929787429260914
aF-199.13994184319847
aF113.91832817823418
aF-144.39872782209503
aF-136.22686769391211
aF10.863764541898309
aF-54.957464225022861
aF71.47373665399553
aF242.75206457385093
aa(lp12
F13.032610593022035
aF83.390710117702014
aF44.866010956391783
aF27.009187814839933
aF-70.891946567902835
aF60.852072870917638
aF-4.090517435729196
aF-87.298169970199936
aF61.655665523236436
aF-59.018436771083799
aF-21.443636372883009
aF3.2452641296552498
aF-43.812099717693663
aF85.404929451539772
aF154.43123373742546
aa(lp13
F186.30185798823646
aF23.96182425377604
aF-135.18846316258825
aF174.85463794542071
aF-159.86882922639313
aF95.095130263445213
aF38.491188640016915
aF156.85571270301955
aF-160.52946426937535
aF132.64366792064911
aF-79.273106401335852
aF61.513866799710911
aF-95.60689065552296
aF67.989005191378354
aF-70.839838526601525
aa(lp14
F132.46190090327721
aF11.287238187519186
aF-72.208302984952283
aF66.410167921683893
aF-0.45461819812102822
aF-31.107173272291931
aF38.837573729715174
aF77.413035552907232
aF-88.707311626866812
aF92.357016731312058
aF-65.597335564188171
aF43.760686074269323
aF-103.81859127310976
aF73.636275535878298
aF-34.330137993920289
aa(lp15
F-68.520919043396759
aF115.91894494712976
aF-161.67322347410928
aF-99.0613174121399
aF191.37747804026299
aF50.35113922071676
aF35.905064064779154
aF18.54358820973253
aF-101.90790488861774
aF-112.43870503974996
aF153.3887236669616
aF160.23912536101071
aF-100.70974261291983
aF-232.18007929275527
aF-48.502454926304523
aa(lp16
F-81.880513800505881
aF88.675492064633644
aF-98.464601290278139
aF-111.40743829944671
aF137.60181058060365
aF-12.853666882273711
aF50.833605629017669
aF23.610691456041724
aF-20.907485913413979
aF-57.813775580374056
aF95.055598274555749
aF57.977047414465133
aF-44.082856479489827
aF-61.086384085823639
aF-69.286404860851889
aa(lp17
F44.354466131649936
aF132.36243237322009
aF-41.238286606302253
aF-48.42542447776794
aF-80.232511902420129
aF151.65823876350859
aF6.3697502991525559
aF-17.093737045156011
aF0.61311994726508856
aF-68.397948428624943
aF-17.868143584035057
aF122.56374102103258
aF-168.53846189599625
aF-46.75804156045843
aF15.504763995713047
aa(lp18
F55.041023835888893
aF155.41745261134056
aF-34.288144131233253
aF-47.669790146341626
aF-57.656584314254673
aF144.1478406007522
aF10.360131141874065
aF81.868084707434278
aF-69.074681857239867
aF-140.44475545583421
aF1.5361668424518242
aF88.634368280640075
aF-120.1900689620478
aF8.8525692355241148
aF-10.231176836989656
aa(lp19
F74.97243097872213
aF-38.437235747828254
aF-95.512337044723097
aF-0.72161176620329204
aF60.815326445715456
aF-92.438182761250147
aF32.70056631621383
aF101.28420558554431
aF-70.430566096320874
aF51.162987732710818
aF81.703062363013203
aF46.790188311431429
aF34.781721399480972
aF-75.833315521080493
aF-157.33696517915189
aa(lp20
F49.348437634692026
aF-52.498577867616874
aF-135.34095986002029
aF5.3730554380573006
aF1.8040463080159357
aF-80.206971181969436
aF44.069856390334316
aF48.941975164107049
aF-56.390091920943078
aF118.94205191583286
aF15.757790951897791
aF61.928424988748638
aF-13.409559939111306
aF-63.412835951926247
aF-135.82977390757316
aa(lp21
F-161.83683996403948
aF-3.648250484498639
aF36.607718598702419
aF-91.832199745187637
aF-13.414091723111939
aF58.81181852270727
aF-21.084754407789642
aF-90.493993580299176
aF116.68165777028001
aF34.853740450832795
aF129.28114145714804
aF-31.319351768461136
aF87.246129163784062
aF-51.712685557470685
aF-32.432203684282555
aa(lp22
F-111.50016982560122
aF0.83545989336947535
aF54.561608251213855
aF-116.79386532068379
aF41.367183140525078
aF-22.008478806807883
aF-3.2601333338076626
aF-70.029697104204857
aF76.178239775849633
aF-39.896283281568735
aF23.697679742489992
aF-15.469786901075702
aF-3.6534313592959595
aF-78.079754611620899
aF-2.9289363149381109
aa(lp23
F-18.605599620217042
aF-28.30011565191295
aF36.217453512930696
aF5.6696618268535381
aF-52.271245067379724
aF22.771208268078315
aF-0.10366876156213418
aF-35.937810103142979
aF-73.843503397335368
aF69.348552553640829
aF-163.33421634848713
aF-98.999353903856814
aF-3.3845710323119644
aF157.98836772546977
aF35.861251305374346
aa(lp24
F-17.612569279418281
aF-4.4003080716213878
aF-27.962865778112342
aF98.087006205535332
aF-93.013978960712251
aF-8.0273454333070777
aF-29.290668266248474
aF-114.31374967548426
aF16.996512499333356
aF87.353209820267878
aF-108.66591358548781
aF-50.864398336615274
aF11.403189852863944
aF166.00033047139604
aF41.389242284135129
aa(lp25
F61.602153507751467
aF25.579679326024355
aF55.640126568822957
aF-37.609600336256399
aF-136.24760853416427
aF112.13422375610652
aF-1.1604751624582346
aF-32.805398059238087
aF-23.618952267400548
aF-25.184792538806185
aF-124.65811838109845
aF15.085352859183434
aF-61.622162767411751
aF103.7396865979876
aF61.170345158780933
aa(lp26
F-124.1088827702654
aF115.31802918050252
aF-1.7839242584158548
aF-107.88868902863371
aF-30.905080476082865
aF97.993292408387106
aF-22.43173374619596
aF-20.298112090628095
aF22.338277061524565
aF-124.51469935596913
aF7.7607564046505004
aF67.144773135102781
aF-115.93135335322104
aF-48.782193373080219
aF-6.8699080732183928
aa(lp27
F-151.14045679602765
aF-79.475494771753361
aF-18.280080108313708
aF3.7899757521413298
aF96.388465093950188
aF-37.022884486977851
aF3.7528669438325961
aF-44.748799457010342
aF11.949934528274953
aF5.1957712830803553
aF51.448406932088567
aF11.652025008306161
aF27.393307401287593
aF8.746876463592093
aF-130.35665677235127
aa(lp28
F32.390718741430163
aF-57.341288137208757
aF-39.284949880959424
aF121.11118036588734
aF-15.369934352509468
aF-62.037818780557096
aF29.354308245366031
aF17.564128254590361
aF-61.827391529146908
aF161.84967521572989
aF-64.144551480036924
aF4.6212424881440892
aF80.355210998180766
aF101.47987615829875
aF-86.834094134589591
aaa(lp29
(lp30
F-18.010414275653869
aF18.058202955948619
aF-22.962302451674926
aF-4.0681224748190692
aF14.328434172263371
aF-11.428918210883877
aF-5.7685025310739757
aF12.327038519912204
aF5.5596089678803455
aF6.5768969427914481
aa(lp31
F-10.410125246793751
aF6.4571411201147333
aF-4.7617412140681123
aF-11.175547068303523
aF-4.502751864529194
aF3.8434625313706725
aF7.2261186887450481
aF1.4023800674633822
aF10.963294108243385
aF-7.7468057695587378
aa(lp32
F-10.587135383602041
aF-13.951465338397663
aF11.834667607810674
aF3.7356883634430589
aF12.802788314581765
aF-4.9549691014226998
aF5.8058615890176624
aF-6.1060482914601151
aF4.116929225965225
aF-14.745082668699368
aa(lp33
F13.728307090120564
aF-0.24666578997330296
aF-1.7442935101402484
aF-2.5970322537653878
aF12.212979824556818
aF-17.550923184076883
aF-18.664210166207734
aF11.401571625787771
aF-12.515749449998323
aF5.7918610506899411
aa(lp34
F21.393387066546509
aF3.1825232680371456
aF-7.2657045273704686
aF4.1085113616844318
aF-12.236282886631084
aF7.7115239894613792
aF3.4973025975665144
aF5.0043324279203301
aF-7.5557596097984279
aF-2.5740102333198109
aa(lp35
F-18.59397575163764
aF2.5951830468987089
aF-0.38094976814976733
aF-17.859932106238013
aF1.7204065628407448
aF3.4460742545283649
aF3.6764465394813812
aF-0.90826951040734982
aF18.380228798770659
aF-2.4912211701459359
aa(lp36
F0.78939088792861678
aF-13.859821393061898
aF-5.1995822890121142
aF-6.2649898037306846
aF-14.648005093707912
aF-7.5925465466313851
aF-2.2191250766159838
aF4.3583542951676657
aF-17.184198065759212
aF-16.87420561226963
aa(lp37
F9.4217877620531603
aF15.86344124534306
aF-13.548235944280609
aF-0.57995204377371479
aF-2.9599608533917618
aF-3.6045592500875303
aF-14.952008805781096
aF8.1884440926260496
aF-13.56057009465558
aF10.554677538345775
aa(lp38
F5.6533401489491171
aF-19.330510690789303
aF15.606862355643218
aF13.598647182280928
aF2.4807656922965675
aF1.2400980507687716
aF9.4341510848147916
aF-1.6824886555813596
aF-3.390444848085397
aF-9.3693311219292639
aa(lp39
F6.2200966426512192
aF0.76706669512502557
aF-1.8323700594933581
aF6.0894645338016087
aF2.8356800943143945
aF-11.272489376784918
aF-13.700778055810318
aF9.3163593362896506
aF-11.27246371943612
aF10.825154188473046
aa(lp40
F5.9462649490595387
aF4.0200432115796261
aF-7.9147286570717563
aF8.8494669111850044
aF-17.619794932741492
aF10.308943733383517
aF16.688980908443508
aF1.9360599135495555
aF-7.8211997991823328
aF-13.575968966299918
aa(lp41
F-8.056255000860201
aF7.8937486562541928
aF-11.610871005562958
aF-9.5370351358062901
aF-3.5629504828460181
aF2.0298088022884491
aF4.8438162534018598
aF4.076947995613696
aF3.838007534480266
aF0.49144130927326951
aa(lp42
F11.175497141406435
aF-16.124299238694764
aF10.489851253571977
aF8.7152947831883214
aF-1.425979617989928
aF-7.2247713017136812
aF-7.1496757151515098
aF5.2653147422229161
aF-12.86036173471544
aF-8.8031079904684066
aa(lp43
F-4.8670027795640696
aF-14.233473798554858
aF2.0766792993230072
aF-10.703312022432694
aF17.396510000244866
aF-20.981003098764731
aF-14.140141971607155
aF-1.2035749061288665
aF3.974434737363461
aF4.2226848104687074
aa(lp44
F-16.024784641123869
aF-15.260760200318822
aF6.0080928754037419
aF1.8289197006157971
aF7.3039633362004768
aF-13.292158188776511
aF3.0447237614070861
aF-1.0335935058016932
aF5.4645326179350837
aF-10.715204375655736
aaa(lp45
(lp46
F1.1079392192233928
aF-6.076056446588729
aF-0.93136515379296947
aF-0.1769487912816651
aF-1.839809479180079
aa(lp47
F-2.2093664723550002
aF-2.3472947774914363
aF1.4190422785483541
aF1.5278098636878754
aF-3.9313812264981407
aa(lp48
F1.1675440444619292
aF0.52018927487203792
aF-4.9513452029690592
aF-3.7939369773353042
aF-1.8270526599966179
aa(lp49
F1.8947486955783472
aF-0.28651339047113605
aF-1.6847677826942422
aF-1.0662087287794104
aF-4.913412331331001
aa(lp50
F1.3280337958769233
aF0.96648666918171344
aF0.85784532631404187
aF-6.1618939516849016
aF-1.3169951386717218
aa(lp51
F-1.353970811325963
aF-0.7256692097724794
aF-4.1110064608748962
aF1.9066662474220939
aF-0.952814606212397
aa(lp52
F-0.026697556637796192
aF0.96340373372032784
aF-1.4387781959519543
aF0.79793037815832313
aF-2.5383791434939154
aa(lp53
F-2.3280735046461865
aF-1.9077301377023617
aF-1.8123669150042796
aF-1.5452121120704443
aF-5.4140963188372933
aa(lp54
F-7.7156074861599828
aF1.5033529507096259
aF0.11948935678084177
aF-0.29942698378677018
aF-1.5192996501848379
aa(lp55
F0.66542156962090571
aF-4.2938711053187344
aF1.1341375481179425
aF-2.0445917949318009
aF-1.4493336500196849
aaaa.