(lp1
(lp2
(lp3
I1
aI0
aI0
aI1
aI0
aI0
aI0
aI0
aI0
aI0
aI0
aI0
aI0
aI0
aI0
aI0
aI0
aI0
aI0
aI0
aa(lp4
F1
aF2.5937785915584751e-22
aF1.4031972475637454e-17
aF9.0335670436970134e-49
aF1.3233007020821347e-32
aF1
aF1
aF0.9999945232834776
aF8.1287795521711056e-23
aF0.99677853405328798
aF4.382690988729214e-34
aF2.2120350561269716e-18
aF5.0709242494192355e-19
aF0.9989340581037145
aF0.99999999999951661
aa(lp5
F1.6019303053054546e-16
aF0.99999999999977041
aF0.50947643703172063
aF5.5926236265797864e-19
aF0.005419226856539873
aF9.707408667975889e-08
aF0.00037080320270890517
aF0.8777379434056044
aF2.3534735327629355e-07
aF0.99958389223283051
aa(lp6
F0.98578363258023616
aF0.0054192527158003125
aF0.0031924157811871121
aF0.0040019117244896292
aF0.00016563599457028634
aaa(lp7
(lp8
(lp9
F46.480396188564065
aF3.2481430079034999
aF-57.158491033083962
aF-85.962189137535162
aF-28.92293202507755
aF111.52217304252646
aF54.082373182280833
aF23.371287086550229
aF-75.812369038003283
aF-30.23779900166107
aF-71.944098105264843
aF-27.397321141807932
aF-50.746396135209807
aF15.174635193531493
aF20.732469401151334
aa(lp10
F-31.217791080384732
aF9.3926279764746781
aF9.4347536337942746
aF-28.24828234437058
aF-29.590536259289827
aF0.80866963356441357
aF43.37372059198141
aF-0.3862149318130973
aF-46.533027020607882
aF-24.445333994378633
aF-43.137737296782078
aF20.60533264591475
aF-36.619653569398849
aF35.447071437201664
aF11.08339422726117
aa(lp11
F66.776424643956148
aF-73.513019755182384
aF12.547398972627747
aF-64.783390092679156
aF-58.973046768679254
aF-35.428853612964865
aF5.2464452214866837
aF-62.277294778642521
aF60.778836712191428
aF32.662292822331857
aF-1.2194294951615856
aF-61.1208956482958
aF-18.697702294016239
aF-48.824974349506782
aF65.114287543428247
aa(lp12
F-2.8727396054442647
aF-52.951899325584932
aF18.353297833276674
aF-24.663533108294224
aF-44.479661803381177
aF-40.497969680716153
aF32.994535256209581
aF-12.256278968798728
aF24.948322694847207
aF34.979696542681523
aF-4.8661321398106923
aF-13.255297600391717
aF8.6208024670276409
aF-9.3297198923082671
aF6.6253985183877706
aa(lp13
F-83.880214831856406
aF25.405974146794772
aF88.024297897861643
aF36.638395884731217
aF14.114054187468508
aF3.9835145943627861
aF-56.901067287623555
aF-25.5600188694332
aF38.305962700443438
aF-92.425500822362338
aF-36.837734119190003
aF39.871784219032797
aF48.062251219391094
aF-53.096307459262071
aF-35.503219025399567
aa(lp14
F-31.488929491066155
aF7.0240843841251808
aF5.5525409608803802
aF36.650683453249179
aF12.086576081193014
aF7.7728514661317414
aF-2.8609356469259617
aF-18.680009695482916
aF33.976962660426786
aF43.193202999624994
aF-58.137327145029218
aF51.877655174151244
aF62.389256020251466
aF-50.95223672721756
aF-51.87548335988901
aa(lp15
F-24.684855642573886
aF22.250216468628064
aF-54.393316992194769
aF122.86419213166434
aF37.376837946182569
aF-27.591724815381021
aF-2.3505303295234028
aF4.2648315017138128
aF28.004737224093251
aF-0.69747799498347984
aF25.042950473268402
aF-52.906977153772779
aF-31.147512681058
aF32.453660277585591
aF32.422170316402138
aa(lp16
F-14.420865304896189
aF7.4269078363014485
aF-70.932319982081495
aF-1.2244060095998648
aF4.6640123813852794
aF-34.305560223015682
aF-79.090013850873632
aF48.094538951993719
aF-27.350206193419002
aF-0.039678011468174484
aF-34.240439414392085
aF-17.067508373717516
aF30.801758610327763
aF2.9698621078997727
aF5.1441544451593035
aa(lp17
F-24.803270051807203
aF1.4679986436711534
aF16.548783147869887
aF49.855200155283711
aF28.070630345829507
aF-37.066182490309835
aF-15.845609086291507
aF-4.1790628020489553
aF58.318224246636873
aF6.8675757336762029
aF3.3304436672293649
aF-34.298590409155167
aF1.9526179251195079
aF-43.082797113749407
aF0.7946775446631732
aa(lp18
F-7.8353182727084345
aF1.375552871491015
aF29.374254754712506
aF33.713464383566112
aF23.682264792001696
aF-17.872054858233227
aF-10.094159656076251
aF1.3282770008937905
aF52.434555571026657
aF13.257299559661712
aF-5.7084158438970567
aF7.9956457167018886
aF1.1180672112745074
aF-33.308135506613255
aF2.3003115027910424
aa(lp19
F-24.642485619339379
aF38.564081188063419
aF13.809131404006322
aF25.049484251201058
aF6.8791811136566485
aF2.9999422543923697
aF0.5252168684232793
aF1.8633877404062187
aF-13.077724745287947
aF-32.620153530190031
aF-1.8635594587746875
aF11.389542997086401
aF-15.345632354946087
aF36.569562595963752
aF-6.7083452998430033
aa(lp20
F-3.5812334840652449
aF26.476508722223553
aF6.3378329877913231
aF22.048400167255078
aF4.3840110357857265
aF1.2090408977102236
aF0.45982554621807298
aF20.410676258754588
aF1.1481633921930545
aF-26.5319524633924
aF-1.7690920289502612
aF7.8810120132078687
aF-19.909953467362488
aF22.133087573506852
aF-18.465744197544431
aa(lp21
F-0.39341442114087549
aF-13.946816367608491
aF-59.994853120729168
aF-27.149064449408794
aF21.253074142814423
aF-0.028671739537996514
aF12.482056795117124
aF4.3943667698796789
aF-13.239836247259545
aF25.649798301963791
aF1.1516999155450092
aF-0.13319954120457669
aF-51.519303109051478
aF-7.0371715573199074
aF23.742306150959902
aa(lp22
F25.437853389001358
aF-5.6245956116686067
aF-10.660967438018814
aF-20.528051809479113
aF6.1553681093322163
aF14.899218535626456
aF3.9396315770584991
aF11.263078249460794
aF-19.774757710565847
aF29.164579759086195
aF-8.3145155315821793
aF-22.155378135718543
aF-18.981874767446136
aF-5.6043312023039924
aF56.790992553157828
aa(lp23
F0.29939445756428301
aF-13.301534832077486
aF47.541106287127818
aF-35.370645597779514
aF-14.485501339334027
aF50.3995310515932
aF15.242841699711379
aF-23.342754630932784
aF34.459490043291957
aF2.22219069254957
aF-43.207351786377622
aF-16.674645968319368
aF10.792150416468411
aF-37.542891082300983
aF6.8281643405148689
aa(lp24
F5.18754710807527
aF-8.7621896083833004
aF5.3319532113995853
aF-30.836328078436136
aF-22.305549029583428
aF11.446948088964543
aF33.803752531162885
aF-15.545987274246507
aF23.296607887088719
aF10.082944031992772
aF-45.246210153258282
aF44.31521345196191
aF-4.7036822783910104
aF-7.269428838528107
aF-26.310844463784498
aa(lp25
F2.3892980468793752
aF-8.7397391538122751
aF4.7129518305522842
aF-21.344469831720392
aF-2.0904562686752719
aF-0.28816778777485902
aF-1.1377327050423123
aF-19.212726212651749
aF40.345922509510089
aF-3.5824077261665654
aF0.92747695991866375
aF-1.5737896287591973
aF1.2003167585264223
aF0.56763854800645686
aF1.1385456095385953
aa(lp26
F-0.77633850300023355
aF-0.12410715783293358
aF-5.3706626092264278
aF-5.6216411240312691
aF12.564988480177705
aF-14.261411795035711
aF-11.17761718247395
aF3.9823042491848413
aF-13.842615778475801
aF25.758200072323028
aF36.347279939170519
aF-7.4943439861026562
aF-2.7248942297618406
aF-4.3532131227974347
aF21.350788105781255
aa(lp27
F5.7655723880945038
aF-0.66200245707470096
aF-0.37950377555305148
aF7.3504981221747858
aF-1.0321068074051571
aF0.80924707783048366
aF-1.2700655737428976
aF14.734447324111722
aF-29.009897677843963
aF-3.4015041430129718
aF0.73910856537536873
aF6.9927301243051323
aF-12.029313407244349
aF37.381624915702616
aF3.6986118543960402
aa(lp28
F-7.1401348947130883
aF5.5541278184313496
aF-0.96306492525404352
aF-5.7033190066293677
aF1.3177487027769612
aF14.465214142246309
aF1.1743450796424
aF1.7628482093915894
aF7.3575135581940545
aF-22.875124657241749
aF1.204148830692487
aF1.6781927769502782
aF-7.9714851860278673
aF1.3246500658943066
aF-8.1727162171637833
aaa(lp29
(lp30
F-2.8892138009025539
aF9.9835277969082092
aF1.0491423561029301
aF-8.0100005054921564
aF3.1942241669824711
aF12.080977415914159
aF-4.6254442902603108
aF0.13187822617136155
aF-4.711595044901709
aF2.8184298178748874
aa(lp31
F6.3915297497131167
aF-2.5146598486133436
aF5.6000978297340858
aF-0.48083788566202307
aF1.1009665950207921
aF-7.9287726755693102
aF-1.962443809053283
aF-2.3053694388107724
aF3.9774319521547556
aF7.9030568752470973
aa(lp32
F1.1649405702081526
aF-6.1985612590924903
aF-1.3303979986136865
aF2.6365224741156892
aF-3.2839733875206183
aF1.4053370503848939
aF-14.061827270633145
aF2.7990776723809736
aF-9.8848419418529474
aF0.74421688512644069
aa(lp33
F4.4078815305605641
aF-9.5859899190906948
aF-6.9096118191208964
aF3.727071273955064
aF-8.1884611490995258
aF-1.5696133770481686
aF-4.2609172823704489
aF-5.4720377381143015
aF16.251739201547974
aF0.2355244553946137
aa(lp34
F3.5238482393268624
aF-4.4589047987363077
aF0.52954871114158897
aF9.5318922860594366
aF-2.3935703007332632
aF-4.751032426005235
aF6.6966831555007706
aF-0.63162917173639033
aF4.5563103514834902
aF-1.3965682560694084
aa(lp35
F1.9891696104938328
aF-3.0534073395923884
aF5.4769568537843325
aF-3.9628407944194461
aF2.6378390502571278
aF-7.3277229566114528
aF-5.9501087919737152
aF-1.0793640493597663
aF-4.1657501669586869
aF14.996368202183319
aa(lp36
F-4.4622181742221558
aF6.1693603671358455
aF-3.3854861412624229
aF-10.658512702175825
aF3.4491359300817961
aF-13.323002394859774
aF-6.3689411984138466
aF1.5604227558567647
aF-1.3157746180165615
aF0.68173268991902813
aa(lp37
F-7.4150076913572995
aF-0.81221270877710972
aF1.5721001006355908
aF-0.31321416928056084
aF-4.8547799727794922
aF-6.3145373515866261
aF-0.082818406430519062
aF-0.9530159106119036
aF-1.1826277869804975
aF2.5252849301072757
aa(lp38
F0.25283649403779945
aF-3.5089055756394063
aF-8.2597927648933389
aF8.9072533461592016
aF-3.0346650271175286
aF6.4495345753170721
aF0.75031439670288103
aF-1.6780973585813843
aF-1.8621204089352856
aF-4.2179709949799964
aa(lp39
F-11.998620358892801
aF12.12973074537148
aF-7.14643559269705
aF-8.2159478543392304
aF-8.7370033401570399
aF3.7215019592471905
aF2.4122785451936144
aF0.87293984774614797
aF-2.1649425249668166
aF-6.02811467562681
aa(lp40
F-4.3657383865673198
aF1.8471797798576535
aF1.9194830149931699
aF-0.88857692552889711
aF-6.1963269840067206
aF-3.1020055916196148
aF9.3867355683006526
aF2.8461533257097833
aF9.3765947772029925
aF-10.878534441580182
aa(lp41
F-3.2057933126573994
aF-3.5822645985766775
aF-2.2328219628482833
aF-6.9584593839410243
aF-1.1596972981822935
aF-3.357014034335482
aF-8.9761335203815786
aF3.1346758756270585
aF-10.664048735121039
aF5.6259907224873951
aa(lp42
F2.5204833626646135
aF-10.569660332333344
aF-4.9425798686168534
aF7.2650787100620784
aF1.0261078440095914
aF-0.27223061021914002
aF-0.19994833665232897
aF0.7761749860648528
aF-10.093242442497168
aF-2.6192961925820231
aa(lp43
F-0.39161745797493819
aF-0.046425859954496398
aF10.400619675429894
aF-3.1136940969199483
aF2.8886379618116491
aF-8.0412895857461084
aF5.316113579111942
aF0.60601662055743999
aF1.1447796400906316
aF-1.7857540716526226
aa(lp44
F-11.241755470402145
aF3.7711884774369193
aF-8.4932729418990487
aF-7.783246252952785
aF-3.8296331698500348
aF3.0596640862003199
aF1.412485202042477
aF-0.023681809284136341
aF-2.8720533577750573
aF-6.4446442759931672
aaa(lp45
(lp46
F-1.6958539423326571
aF-2.2193442401921395
aF0.36050942758377408
aF0.057569991199347255
aF-1.5653892301560814
aa(lp47
F1.9769661563629055
aF-0.0048355870496958244
aF-4.2369508442615444
aF-0.69074897838648586
aF-1.7931717501873357
aa(lp48
F2.2869396293349067
aF-2.9884797315432108
aF-3.1395690288038418
aF-0.28208994327602821
aF-1.328343782189185
aa(lp49
F-2.3444620213008971
aF-2.189210200218819
aF0.9490149752670729
aF-1.1615780469066797
aF-1.3753369145776597
aa(lp50
F0.35295900571340411
aF-0.90757102687747193
aF0.047196580232212834
aF-3.0802894217708756
aF-0.66365736772664363
aa(lp51
F-3.7058880515888593
aF3.4705757375326214
aF-0.57326741386427427
aF-2.097762052715697
aF-1.0262763534028159
aa(lp52
F-2.4010237865755824
aF-0.1999448444832766
aF-4.5454723307386988
aF2.7210371220894269
aF-1.6479215607475264
aa(lp53
F-1.4582197713110854
aF-1.32438717940165
aF-0.57014408723714682
aF-3.2666884940543315
aF-4.5034923418448578
aa(lp54
F-5.2222927832974504
aF-3.8039632325016632
aF-2.6318755528720645
aF2.4961234296997503
aF-1.9855466971971527
aa(lp55
F1.3877783241144535
aF-2.5227314320238379
aF0.59241670374380972
aF-1.8042971658257083
aF-2.2796320428776098
aaaa.