(lp1
(lp2
(lp3
I0
aI0
aI0
aI0
aI0
aI0
aI0
aI1
aI0
aI0
aI0
aI0
aI0
aI0
aI1
aI0
aI0
aI0
aI0
aI0
aa(lp4
F0.0003405071401569977
aF0.99999959818887585
aF1.4672445630886666e-12
aF1
aF8.1825959812242142e-09
aF0.99061930324454228
aF0.00019644144825575001
aF2.5719338788552351e-10
aF0.99990364427720457
aF0.9999999984554151
aF2.4114332483939456e-08
aF4.8140648209772871e-12
aF2.0270958198912008e-26
aF0.99950162113467211
aF2.7569631571798532e-12
aa(lp5
F0.00017188018891110441
aF0.61139021705756758
aF4.0340200557466865e-09
aF0.61146983548982636
aF1.0431804768720688e-06
aF0.99997867795865603
aF0.0030135255403360749
aF6.4271861599379281e-05
aF0.5142735544396192
aF3.7491511538171206e-08
aa(lp6
F0.0004387273890275557
aF0.016579055367233069
aF0.049325452055445917
aF0.70955936035388867
aF0.0021763981733334877
aaa(lp7
(lp8
(lp9
F-20.350098063156928
aF3.6564880630242911
aF50.492443081057885
aF31.019834539822781
aF27.730818734306617
aF59.130394490382479
aF-2.0163662645052898
aF-35.545062747422612
aF-34.437927482238706
aF34.586963362091936
aF92.690450207132372
aF-53.444608970390661
aF-18.549446430665483
aF-26.508879246593889
aF62.024793546719209
aa(lp10
F-5.2647742559559303
aF-25.557251278488412
aF31.848952806120881
aF5.1031765667114479
aF34.604121278148369
aF-33.092184281533811
aF-15.292233448851594
aF-1.9613115071548903
aF-50.099312115343871
aF27.895425470508986
aF-5.0993767775495185
aF-31.249072562944459
aF-18.567067579972676
aF11.067687645904742
aF12.202604072785302
aa(lp11
F-75.982286128851229
aF39.646403574802264
aF-62.189499418067093
aF-24.458515541731064
aF-51.724581999309109
aF-59.573123422238687
aF78.122553967934948
aF106.47725562452706
aF-2.4319350865715874
aF42.247591146712111
aF-27.676074432483297
aF-46.82211748374305
aF-60.198436758552646
aF-47.929088046222688
aF-9.2525641341899316
aa(lp12
F-29.53709431004366
aF17.939631087841313
aF3.4846720766139709
aF-25.406837158735613
aF-9.3267348824001886
aF-23.291648890659186
aF62.570656924003238
aF28.746526634196357
aF9.430120432441905
aF19.298311572475605
aF-14.854532189159729
aF-25.941234025885951
aF-16.901520383339346
aF2.4907099719057579
aF-36.000701963613267
aa(lp13
F63.853166328831662
aF32.077959165562625
aF-44.351098653313493
aF5.7455119123938108
aF-50.508061483374227
aF-22.360281591567691
aF-6.6308995305591782
aF-43.805812250157835
aF-5.7250143538824316
aF-43.201993297792669
aF25.064498066482841
aF92.987218088146108
aF84.682636657172836
aF29.70222484631045
aF-19.894545365483676
aa(lp14
F67.216631548596212
aF22.423057575987269
aF-70.370569222012364
aF11.508732411811652
aF-15.153186038204367
aF-29.239491234931663
aF-18.933293807739922
aF-46.592987295703423
aF3.758378349330437
aF-27.648189207488102
aF28.144613603043528
aF14.92466852024063
aF-12.15223324719878
aF64.81262827076074
aF-17.894586872901559
aa(lp15
F42.604561001645301
aF-46.13195078935108
aF53.139250120674539
aF38.918973532616775
aF86.678415022125876
aF67.811757014327767
aF-7.9342335531856412
aF-13.731475355293327
aF67.246070924126357
aF40.268410824408953
aF-50.535012496777618
aF-22.406302212573145
aF11.807528822597027
aF-50.075112835833465
aF40.183846434845748
aa(lp16
F-9.9882727240243696
aF-13.798839357727841
aF-15.019947048898699
aF42.596451202146667
aF0.42170242643876243
aF39.402231113275448
aF-14.959748213283794
aF-12.73143871569243
aF6.5896701971974867
aF21.011256574668355
aF-51.562117597005546
aF-25.765987622833325
aF-45.112422900448351
aF-20.963972148848583
aF-15.660708780618201
aa(lp17
F21.463941317638408
aF37.00880553449791
aF1.5362222112091291
aF-11.321569127274804
aF-29.104063723304147
aF-3.3391282869415666
aF15.38384732827215
aF-1.5853102308787386
aF46.013411995486486
aF-19.993523344602107
aF-31.114221699714875
aF31.216681314573464
aF6.9181696006005602
aF-11.170581623883166
aF-32.107851582804692
aa(lp18
F12.720798498156784
aF49.051417514752607
aF-10.934113025920778
aF-11.352940904089653
aF-1.6432774857121051
aF3.3584238407734741
aF10.512626322398505
aF41.295217831704385
aF58.261329949711914
aF-8.2383306628591484
aF-8.3718463359641717
aF20.957544502202289
aF12.005214543225367
aF26.46973487336134
aF-44.187895186731652
aa(lp19
F25.606828144481838
aF-34.885721242200177
aF5.9433366090344117
aF37.655910666342088
aF41.381951332053148
aF1.8096976632820272
aF-30.37082913724138
aF-65.680684299565797
aF8.3945823685426042
aF-12.890380029642754
aF11.105828532293186
aF4.1990224598063604
aF31.282914508950704
aF0.67136234458345745
aF30.770221286310971
aa(lp20
F65.360684573342596
aF-40.461057947388937
aF-3.2939228133918448
aF42.303749957610471
aF39.719125047456231
aF29.019484791603638
aF-21.553568838101135
aF-41.656702495148998
aF0.43682938957244211
aF-0.43685144238851586
aF16.492202161066952
aF30.369815208073749
aF-2.7297339001229144
aF-0.49474140467376504
aF20.587699547962341
aa(lp21
F-21.402309050571791
aF-26.165588177530942
aF14.173191117850282
aF-0.19851081977623275
aF17.624467885241312
aF20.977558775542839
aF19.402464798184919
aF44.264648831118201
aF3.925751553306688
aF57.523178234402408
aF1.0448473320673477
aF-45.625909040654953
aF-65.96797348537153
aF-32.260266082443749
aF-8.6582033432693226
aa(lp22
F-41.436797123636588
aF-12.886817491545033
aF9.4865542569015879
aF-3.3777668595297383
aF26.821235938979321
aF19.28232498216278
aF19.931766092050573
aF-0.77535374222964049
aF-4.1565295006676513
aF44.459569695750076
aF-0.81985231029391104
aF-48.230709313921622
aF-50.428845600174945
aF-20.72356315043471
aF33.023732326127096
aa(lp23
F1.0011506407050961
aF27.526117404448396
aF-12.2276878720697
aF5.3235037584607516
aF-19.042958652838237
aF-34.560332280843816
aF5.4246042630517701
aF-9.3497541173678798
aF1.6583857273114668
aF-1.7227458980803625
aF34.021657558476974
aF-0.29349168877303983
aF-14.04818537926764
aF27.563887605074072
aF-10.956182566704728
aa(lp24
F12.229850362003802
aF37.81273933660642
aF-0.7133552952074087
aF0.66890192040893259
aF-16.363975191369068
aF-34.317152756264022
aF7.078435576161775
aF11.03167578457173
aF-8.5394967847910817
aF4.1296727531205555
aF33.20846697693792
aF27.904101184946516
aF-23.756522914470594
aF27.258681719437245
aF2.2508964769524651
aa(lp25
F11.957460718267207
aF38.39793961985437
aF-47.406864184673097
aF-16.896263573220633
aF-44.24571552711685
aF-41.257865552335232
aF15.282533160849306
aF28.741251326970914
aF-3.088781397246513
aF2.6253122146443038
aF-6.1400899409509133
aF19.531838797943529
aF10.738505673558677
aF20.050118390907635
aF-37.984647211418853
aa(lp26
F-38.909141835630521
aF-0.78305333844701486
aF32.957540806993087
aF-1.5480459559379396
aF-29.948363637833332
aF16.424225786475983
aF24.421565534272595
aF24.115736770724929
aF54.408366165606743
aF35.99384869642028
aF-7.1697941479368774
aF-12.613026093732588
aF-5.2097001964807879
aF-29.490610259519119
aF-6.7436509402654004
aa(lp27
F-5.7271303667607842
aF-23.70740886104608
aF36.516914465871388
aF26.348695177848047
aF46.22833460706623
aF27.027509701059145
aF-4.1282673976660584
aF-33.233288711368019
aF13.115632900411706
aF29.917127067925872
aF18.680526374126899
aF-29.884232334440483
aF-10.087847849778321
aF-7.9550829497458313
aF7.7628777455550892
aa(lp28
F-4.3682714986032352
aF16.017414951906193
aF-0.46761720570081511
aF-0.3088558163739884
aF27.352938528898481
aF-27.690487757421838
aF-16.973283759294894
aF-40.214620522399514
aF3.7698050570386195
aF-1.7913179257700012
aF65.205702407574179
aF12.335533246656755
aF27.808045835101176
aF12.84914066226365
aF12.93765263512298
aaa(lp29
(lp30
F-1.302869883630583
aF3.2936606274410711
aF5.46055229209228
aF8.4385988755893973
aF-6.8617663622408482
aF-3.126040293609639
aF-6.1807194786624944
aF0.071054694282593381
aF-6.8019222708924447
aF-7.1380746731272131
aa(lp31
F0.20601809233213003
aF3.5668360868232516
aF2.1146696628030459
aF-4.3965361795159925
aF-0.43199054134436526
aF-3.0597006322858693
aF4.6918139243925774
aF0.35491427452484409
aF-3.5502453686912374
aF-6.2158148932098172
aa(lp32
F3.8232565888502665
aF-6.6544436589924443
aF-7.6153042842067551
aF7.0494026795938698
aF-1.6164656350765927
aF-0.40719501343216374
aF-5.8029044377752088
aF-0.16301809695351541
aF0.43999483654283439
aF5.110934527890878
aa(lp33
F-9.124496097479696
aF-3.9460187078836189
aF-7.9582100801996889
aF2.7567123305833077
aF-6.4644277407096311
aF-5.67399270141971
aF-6.6961291488779162
aF-0.69850568550007364
aF-6.5419646763957191
aF0.6692711915616989
aa(lp34
F-2.6671525447617976
aF-5.9383820500511089
aF-5.2033563352747505
aF5.0990023796838591
aF-7.6595541129588653
aF-0.8027121301090463
aF-8.0046631891723372
aF-0.27724076813379195
aF4.1841815484425933
aF3.8687493181213304
aa(lp35
F-5.9596075240034585
aF-3.27109202419655
aF-4.9649882262752891
aF6.7973459035164137
aF0.47780588745623143
aF1.6418791082176973
aF-6.0793453022664536
aF-0.28937067941139638
aF5.3949972165245939
aF3.1020595845497487
aa(lp36
F-0.50138643574725561
aF-1.138712502032952
aF-2.2788751327233867
aF-14.575919692613242
aF3.4041734254970994
aF1.8051794344694869
aF2.6174703502073746
aF-0.090086820506995874
aF-2.0616510320584767
aF-0.65432740437473369
aa(lp37
F1.1892174253581296
aF2.0535475364337228
aF-3.7548685820254142
aF-13.716970191370836
aF6.664328777540633
aF-1.7208564375956792
aF2.888186523826862
aF0.17863977629738897
aF5.4146240196807547
aF-3.0644971320909966
aa(lp38
F-1.9836743920775095
aF14.739030930891378
aF-3.8630571872078816
aF-1.9837650034236547
aF-3.4355388820340322
aF20.064788705807555
aF3.2899340403011621
aF-10.092831495279713
aF3.3695878050596231
aF-13.395651444089573
aa(lp39
F2.8883846994633782
aF-7.574595008232234
aF-6.5172526924937388
aF-0.61958488424335012
aF-0.2693727624005765
aF0.84844673739034826
aF0.36796157539094965
aF0.11573505264812228
aF4.1772294649848263
aF3.5941088749738457
aa(lp40
F19.747186382103962
aF-4.7297546886313491
aF9.1491874099166939
aF2.8317924470026745
aF2.4513359866467832
aF-6.0523565361170792
aF-0.6267252352235444
aF-0.18888434732084905
aF-8.5225756486147013
aF5.0352735876195309
aa(lp41
F-2.2221615977610512
aF4.5076397011410076
aF6.4222720695735038
aF-3.2745051678848784
aF-3.7438469906138128
aF-1.2576994250653724
aF-5.4669753815066811
aF0.11852306341942591
aF-10.174170037120462
aF-6.0377708206985021
aa(lp42
F-1.8402956210331132
aF9.1511201382598646
aF6.7717529010283819
aF8.9317316418592601
aF-6.147041707527868
aF-0.99880672395275816
aF-3.5310774719722962
aF1.5657419900680802
aF-9.575880166852663
aF-7.8413651993529339
aa(lp43
F5.224946278613614
aF-4.6384262784788266
aF1.8128680037968892
aF-1.8910580092584521
aF-3.6457098914514314
aF-4.0492023013418921
aF-1.5408669044374899
aF0.95430983681095438
aF-2.5353451575604127
aF-4.8251640936188567
aa(lp44
F3.1960457614296236
aF-6.7218236080607392
aF-0.85569086568160369
aF2.4417389262962388
aF-2.2675386777170781
aF0.70700114757144061
aF-6.4161234812951067
aF0.64624857126191981
aF-0.25929727483762799
aF5.5070206974082803
aaa(lp45
(lp46
F1.9620262491063765
aF0.95122560862394478
aF-0.5175777071752875
aF-3.0762092879002201
aF-0.5762925203155741
aa(lp47
F-5.6573209947781455
aF-0.38906164377783681
aF2.3373347839545029
aF-2.2987401976587232
aF-3.1893005817350075
aa(lp48
F-1.2707832712939631
aF-1.1714462058327322
aF1.6342251411395181
aF-2.5857630353101735
aF-1.9937087519473748
aa(lp49
F0.52575404050201202
aF-5.4455025175251297
aF0.58909952456451897
aF0.50335859215599699
aF-2.3460770848617263
aa(lp50
F-2.0066555025705126
aF0.66370304542343939
aF-2.4209878849512649
aF-0.76031405732935997
aF-1.9730473234999613
aa(lp51
F-4.2844796661765354
aF-1.1407291065527161
aF-2.8610596121822343
aF1.6405937421375669
aF-1.8708008277797832
aa(lp52
F-1.3871404209027374
aF2.0411993595635134
aF-0.68826660817887653
aF-1.545432708517732
aF-0.43543735961393532
aa(lp53
F-2.222597375865353
aF-1.6279002192050096
aF-2.1708732225206555
aF-2.703380327446923
aF-5.4740462260745586
aa(lp54
F-0.59406975824226194
aF0.33847537907494696
aF-4.2873890857355592
aF0.23691244164276729
aF-1.7051813494730381
aa(lp55
F0.93289217328386542
aF-0.98187595841999853
aF-2.706595465343919
aF0.71449082597379854
aF-1.4206386844367718
aaaa.