(lp1
(lp2
(lp3
I0
aI0
aI0
aI0
aI0
aI0
aI0
aI1
aI0
aI0
aI0
aI0
aI0
aI0
aI1
aI0
aI0
aI0
aI0
aI0
aa(lp4
F0.011684567037813457
aF0.9969824582342941
aF0.18162140537192595
aF0.39900396714489572
aF0.88937899274588861
aF0.90358517037381114
aF0.83087618553080844
aF0.40050529831265796
aF0.55563671888949617
aF0.6878468276737072
aF0.80322884242550174
aF0.79057226529010982
aF0.2880262562145639
aF0.90308295659116777
aF0.88408778751117401
aa(lp5
F0.9991981579124426
aF0.68838781422706918
aF0.0060278904061274166
aF0.013377220941804562
aF0.96763762100450412
aF0.059439039322139307
aF0.99708509460690364
aF0.45756791759969573
aF0.18965102266738018
aF0.82880254328725711
aa(lp6
F0.55424904050133816
aF0.01006978729763125
aF0.026808043977183834
aF0.3021673241264678
aF0.0034873518050099759
aaa(lp7
(lp8
(lp9
F-6.0860406121178832
aF7.9204552747150645
aF-13.121853705825753
aF5.2045648187406286
aF-8.3645818642769409
aF2.1771710181039032
aF8.1603111549407412
aF8.4106029396787374
aF8.0180835729154865
aF-8.8583378013469503
aF0.70129328318363515
aF-1.8575025263485407
aF11.195808186739477
aF11.892548885313868
aF5.6805888470703847
aa(lp10
F-3.3015222816414784
aF1.3514988942234671
aF-8.1608703323531291
aF0.15755052975343059
aF-11.480821464354321
aF1.0780110104912755
aF1.1206704301132178
aF5.6125365138024854
aF1.7429130400140445
aF-0.58023826778713283
aF-2.0894965671442565
aF-2.8347615630389322
aF3.5254653769348301
aF3.0688076188257742
aF2.5469661443796663
aa(lp11
F-5.107043140775974
aF8.1444650340084142
aF7.657354930868836
aF8.7351539976334571
aF-9.0926767763514817
aF-13.577404597076683
aF-2.644137072183236
aF-10.711238788430862
aF-6.3529182704697291
aF-9.1253010001591548
aF-13.232073921424666
aF9.9478751332037749
aF-6.9282458979820642
aF-2.9408615977386159
aF-0.77010473862598605
aa(lp12
F-2.302233446426091
aF1.3249821389880307
aF6.0513169386743311
aF8.8066477348261554
aF-0.023810926606481778
aF-4.7843063844240641
aF-1.2403671474039668
aF-6.9016845597455863
aF-2.1486647079350671
aF-9.8634999264396956
aF-8.6852922518125499
aF1.549760097640043
aF-1.1680883120616186
aF1.7776459305662899
aF-2.4960957856851813
aa(lp13
F-6.0193142130201975
aF-11.399601876941283
aF4.3960127065752514
aF-2.5429943405082343
aF13.893647253552437
aF-0.024397533941220424
aF-5.5128057092230938
aF2.2087063875311084
aF4.6251094738876173
aF11.959997128328945
aF9.7186705113384058
aF7.5588932488281859
aF10.975304558216028
aF-10.426338108174617
aF-1.0929332637232843
aa(lp14
F-5.8239643762220945
aF-9.969654125783034
aF1.3748964813010003
aF0.78281182008094008
aF2.9070939057258789
aF-0.39319306944552879
aF-5.4069705855608721
aF-0.18474293850208007
aF2.1533134236019764
aF4.2298644179073968
aF4.2872566858710179
aF1.0932101404513497
aF1.5452931263221981
aF-7.5186988938450989
aF0.23152931361301482
aa(lp15
F12.037914206551308
aF3.5513300439714302
aF5.4160974943386551
aF-12.528948828146149
aF11.324480913561487
aF7.4358220465839979
aF8.5088300626023745
aF6.6563703320664818
aF-5.4760900384032638
aF11.138332693779331
aF8.51993866702745
aF-6.1529078684412051
aF-7.4934353363193527
aF-5.0079933060968562
aF-3.6122161338471441
aa(lp16
F6.177746432322154
aF3.8644043186242119
aF2.5151971970626605
aF-5.2452853204367971
aF3.4508216561963976
aF8.2043078081828966
aF0.64607476291527033
aF3.4642337444512643
aF-3.393829610003738
aF2.9184103542311393
aF3.7763468631675678
aF-6.0511507805478608
aF-9.1441929973360381
aF-0.26968436807998325
aF-0.47940974723586943
aa(lp17
F3.8391041766897613
aF-2.3952250134386368
aF8.7472025549395429
aF-1.6173170120316582
aF9.8014598216500062
aF-2.1462582630857772
aF-2.9129635310298201
aF-3.3401419250025701
aF-2.0030139633911461
aF0.41675785862431564
aF3.0427156303399547
aF2.8426912967071214
aF-4.2119620322594296
aF-3.9106946755364662
aF-0.82680631319873577
aa(lp18
F4.111839587339893
aF-2.327858671395191
aF8.7021984179923244
aF-2.2690891474098014
aF10.441320466865152
aF-2.1658426994541617
aF-3.0667932364800272
aF-3.0705394127428605
aF-0.4967583995979859
aF1.3671658268454774
aF0.90807635209968074
aF3.0764156163222949
aF-4.3571708824916175
aF-4.3878215961092799
aF-0.41054095140901897
aa(lp19
F2.1287260465275364
aF-2.0368186970444615
aF-2.8392136729024564
aF-5.9407631970466142
aF1.6014282256649233
aF4.7559972077375372
aF1.3420453650281543
aF7.9158965206627796
aF2.6509655796497955
aF8.9890505734598474
aF4.8308601074582782
aF-1.9692018329884782
aF3.4048091279802586
aF0.18526629395681235
aF0.84361712233742414
aa(lp20
F1.5162262862067675
aF-1.8451742357224865
aF-2.3694462474259166
aF-5.3590791969190503
aF1.0199213829581912
aF5.3352471673865045
aF1.3379482958955329
aF7.770784323578491
aF1.898909158470965
aF8.1399862529929923
aF5.5776649685959692
aF-3.3701479054023791
aF3.2640744647439877
aF-0.068749149746368782
aF0.20622462795155469
aa(lp21
F2.4838532291201343
aF11.772674543006286
aF-3.1233848101764434
aF0.73134832302116082
aF-3.9189104330134201
aF-1.2834804900544476
aF6.0618032506423685
aF-0.90877015163336927
aF-3.8279229942134956
aF-4.4003195233927901
aF-3.4670458625607248
aF-1.0985672446537078
aF-1.0476504743581716
aF3.8964464738400615
aF-1.6588390547344318
aa(lp22
F2.2115990069435161
aF8.5253799031092985
aF-2.9109648965500123
aF0.66087795150248985
aF-4.1415788085590961
aF-1.2880966959107467
aF6.276369786327451
aF-0.41018771939770088
aF-3.66743593775452
aF-3.1242887318096195
aF-3.3999678064946179
aF-2.4968574214581425
aF-2.5477224108015721
aF2.5617501622600218
aF-0.35465924561572976
aa(lp23
F-10.634765879380966
aF0.94623268916131331
aF-4.4638034769947526
aF4.2736547347337739
aF-1.5493687536501217
aF-6.8972267896235673
aF0.78831526289221987
aF-4.7763765626175809
aF2.8429921849890807
aF-2.5222656481753263
aF-3.1039623492035937
aF6.4422836768607867
aF7.6944635776624501
aF1.5499438344118692
aF1.722528995085604
aa(lp24
F-9.7349555967616581
aF0.6439259423598036
aF-2.9700739800176739
aF4.8568696216042246
aF-4.1150078688329561
aF-6.2877166124251245
aF-2.2092683841537837
aF-2.9908145928895826
aF3.0330289676346718
aF-3.9657054176572792
aF-3.7057922609377418
aF7.4388338675609544
aF8.0706081321361012
aF2.7525297675319065
aF0.75789796138492704
aa(lp25
F-4.1708571507452001
aF-2.2657110529639679
aF5.6612250314182724
aF1.597544334791198
aF1.4823029511982238
aF-4.8070477890498529
aF-5.0913731210568338
aF-4.4081579569557805
aF2.9993865934033943
aF-0.16107164976655744
aF-0.43508811098019068
aF7.8013795330842459
aF-2.954104612310541
aF-2.0117001202232476
aF-0.83709787095874144
aa(lp26
F4.9486861558576454
aF4.816302242516092
aF6.0339570600036811
aF-1.6038501097406863
aF1.7302981835492195
aF-3.3918213528534391
aF5.2116346960138342
aF-4.275773701535754
aF-4.7075048570874323
aF-0.12325605076420544
aF-1.1889030414982327
aF1.316604095264333
aF-6.7041048974282438
aF-1.4533820548983467
aF-1.1825767552461077
aa(lp27
F3.3584545012388594
aF3.3386854358667004
aF-3.4752019820181594
aF-3.8258777738541032
aF-0.544385915262937
aF2.0010523354053249
aF6.8159654444911899
aF4.2164357605431855
aF-1.9107077954805256
aF0.1736506074321825
aF0.28721111732936899
aF-5.270608834748769
aF0.43046857887677359
aF1.7307297406286257
aF0.27650388228070266
aa(lp28
F-4.2466857667532327
aF-1.8535120172447905
aF-3.9963088671897418
aF2.9475139507234802
aF-0.97415185006308891
aF3.2374073464422759
aF-0.57746692060381966
aF4.0259628403529257
aF5.0612705389260233
aF1.7218872370789009
aF1.6948372477491644
aF-0.49641316813641784
aF8.8855496905240425
aF0.90784807548268698
aF1.1063395756822243
aaa(lp29
(lp30
F0.34870083381912476
aF2.5304458696274486
aF-2.3574305885105722
aF-1.1419268385045946
aF0.98461959092163054
aF0.80375920285213598
aF1.0332844802372683
aF2.5548319272944955
aF1.7772537045613208
aF-0.024831015338263134
aa(lp31
F0.41900026502724719
aF3.1421377971601281
aF3.9611560046220213
aF-1.78929939373323
aF-1.2160820342836351
aF-2.587131815297818
aF-0.63112499191631566
aF1.9929142274525531
aF1.7467412702568945
aF2.0640849361033142
aa(lp32
F0.26132229015715297
aF1.1208165524131493
aF-1.653418496374268
aF2.8138501375823424
aF-0.6013306361833769
aF2.2472453495295155
aF-1.3827357622640597
aF2.231141165986493
aF2.1695822137751373
aF-3.2752834921344038
aa(lp33
F0.68085150401373618
aF0.30501600764323872
aF1.6213692607817551
aF3.0451940085200495
aF-0.035949031759636971
aF-3.4832859103881382
aF-1.5329672471036695
aF-0.95218634896757415
aF0.26632467247192171
aF-0.14286636797719748
aa(lp34
F0.86578883626068126
aF-2.9347060985237872
aF-6.3825796305514997
aF3.1837938623147393
aF0.22886995441390615
aF4.4700311163309907
aF2.844851295784256
aF2.6653732547413957
aF0.88219955489674962
aF-4.9578420248852542
aa(lp35
F0.69761240977252525
aF1.0399109301052341
aF-2.6883210620568945
aF-2.2033477862006032
aF2.4668306701222331
aF-1.2025600362722411
aF0.32204430875584089
aF-0.10784809540318613
aF-2.2493903604605432
aF-1.3564358963417993
aa(lp36
F0.63127383258792791
aF1.5621579542940522
aF1.4320504565605912
aF-4.3436548134790858
aF-0.08125894122156839
aF-1.6465924904144891
aF0.70895833735301672
aF1.8758247099860195
aF1.7747732208845737
aF1.4705370334888761
aa(lp37
F1.0116985852732521
aF1.0967754494570616
aF-0.66209554515752123
aF-2.4882614390585336
aF1.8948683383142813
aF-1.3781965100671252
aF-0.99262711760468902
aF-2.3140254042537096
aF-2.6338587202000205
aF0.53308486320141568
aa(lp38
F0.77901501669002526
aF-0.7149002688034769
aF-0.32232482233052634
aF0.9501782229876965
aF0.638177083543783
aF0.671736335284145
aF1.2424345230807763
aF-2.5540629898008356
aF-0.63996161583925659
aF1.3115071839534795
aa(lp39
F0.60235652423823549
aF-2.1944892566900407
aF-4.3461485032299665
aF-1.2671985920593467
aF1.0048236506944404
aF3.7089178994375298
aF1.9378125215749302
aF-1.958076068943412
aF-0.65986746313466915
aF-1.4033279825591569
aa(lp40
F0.32959892847892663
aF-1.1984874369458509
aF-2.1326677552596816
aF-0.15195205061586206
aF0.6143887659906736
aF0.924646329934667
aF0.1948585046313985
aF-1.0524514918581434
aF-1.3676090648734485
aF-0.70354573585248548
aa(lp41
F0.72063238918745787
aF-2.6394074143783621
aF1.0753228874798033
aF2.2609860417124303
aF-1.645809097108071
aF0.43917684356137798
aF0.34360847511464909
aF-0.30252072991168549
aF0.627932321743082
aF0.63389510857575848
aa(lp42
F1.1448652481682475
aF-2.2651302204696737
aF2.1656650475187758
aF0.33512480510721782
aF0.88150525442503236
aF-2.4412659939443757
aF1.878676525014046
aF-3.3513154889587011
aF-3.4012933918695052
aF2.5510109000931864
aa(lp43
F0.45756828607371614
aF1.5290780691571264
aF1.5473469901981272
aF-1.6806179148543283
aF-0.3690637205936631
aF-3.2994027672037238
aF0.24491692543761562
aF0.5599898852899291
aF0.40043611200345269
aF2.376541838667809
aa(lp44
F0.71630441272007095
aF0.70806529048012545
aF-0.32248615706587164
aF-0.50749130148108434
aF0.52401719861406837
aF-0.58329821314150987
aF0.18313879719864995
aF-0.85474295105232223
aF-0.98073852288156027
aF0.98118164135265196
aaa(lp45
(lp46
F-0.31162412303111808
aF-2.0053982028761714
aF-0.10972718800301337
aF-1.1659840996880211
aF-1.6014634164239119
aa(lp47
F0.97382923263263876
aF0.19313439584154565
aF-2.5387116645856835
aF1.9042888326264524
aF-0.48649631096837342
aa(lp48
F1.4909967355323757
aF0.75647339954494974
aF-1.2514649455301998
aF-2.2101820366044649
aF-0.15905596705316308
aa(lp49
F-2.3811824047369603
aF2.4199089332545838
aF2.0712798913036758
aF-3.0864553482789705
aF-0.46643448146764915
aa(lp50
F0.35164568842405697
aF-1.6805958213883239
aF0.0020344825718173363
aF-0.034934430089759716
aF-1.6200850004921707
aa(lp51
F-1.6600139579423714
aF-0.98565124862615605
aF0.60947065607608275
aF0.87810778829983271
aF-0.69920394951241638
aa(lp52
F-0.3376026447762534
aF-1.3906626754843179
aF0.34247833300027158
aF-0.84914677437487884
aF-1.1003607071026291
aa(lp53
F-2.199770191511325
aF0.93806327930476385
aF-1.7631036055649318
aF2.1183267582621452
aF-0.61232515588281844
aa(lp54
F-2.3252149005836795
aF1.9798513671074249
aF-1.9474594668292535
aF-0.25814004454654499
aF-0.28951008908737436
aa(lp55
F0.79954113070188981
aF-0.5969721447929982
aF-1.2572010425932869
aF-1.3853269235986079
aF-0.81522056094850337
aaaa.