(lp1
(lp2
(lp3
I1
aI0
aI0
aI1
aI0
aI0
aI0
aI0
aI0
aI0
aI0
aI0
aI0
aI0
aI0
aI0
aI0
aI0
aI0
aI0
aa(lp4
F0.016693838659794694
aF0.93898387506387582
aF0.0012449948590300009
aF0.018677399808606669
aF0.99604885925509712
aF0.3514347173551895
aF0.004950567250790806
aF0.78985406410731918
aF0.32001013927909383
aF0.99999803445922164
aF0.99397636563836933
aF0.99998478729893003
aF0.89344271136258224
aF0.017513455132235543
aF0.49368225730819326
aa(lp5
F0.99897354835613084
aF0.97929405471160336
aF0.99049161837023003
aF0.015530952427938234
aF0.99043862726364518
aF0.016312507296469696
aF0.99400562749273402
aF0.084587223769669748
aF0.00013364758193003373
aF0.0035334664655597048
aa(lp6
F0.96789486303148597
aF0.034584149683289517
aF0.014225762680141399
aF0.012618178864396309
aF0.0081226141554144489
aaa(lp7
(lp8
(lp9
F-6.6259866431052421
aF3.0701768182030853
aF-6.8006947688246715
aF-5.8305242814462401
aF6.2410501874891331
aF-0.3670890533569437
aF-0.57491474736705162
aF2.5812552041373746
aF-1.2689434255377992
aF9.0138558305616296
aF6.8852403977422911
aF10.267068305552062
aF2.7526093842447734
aF-7.1503349812516097
aF4.0618090218442298
aa(lp10
F-5.2488729716486748
aF2.4337578103622572
aF-4.9193796870182638
aF-4.1485812412689311
aF1.5934273134788068
aF-0.94245698211039575
aF1.1557161274152439
aF1.37774526497969
aF-1.44392263938165
aF1.6212126727260967
aF0.1256888179187845
aF3.3238405312051746
aF-1.2217443209476615
aF-4.1808722608784841
aF4.5101493527171037
aa(lp11
F7.4232212296894078
aF-5.9113765001176981
aF-4.7604333578095837
aF6.5731259735656566
aF3.4633306423669459
aF-0.24089426164450276
aF-5.8136575818826417
aF-6.6485733633528863
aF9.3033021045813289
aF5.5365436528957623
aF-4.9664239516273359
aF7.4289760465890371
aF-8.4286381086694284
aF5.6909036287328938
aF-8.2370504156364319
aa(lp12
F2.5332008064924083
aF-1.2775305142159543
aF0.11205972122679436
aF1.8500065606522733
aF-1.7072782885851656
aF-0.6123364445115187
aF-4.7332734699087133
aF-2.0609634304381981
aF0.2321141170153434
aF3.1258873509904803
aF-2.7730384095784788
aF-0.17368809127248969
aF-1.5132052078712148
aF3.1054639759712059
aF-4.5414754975104152
aa(lp13
F6.872004019633712
aF3.5152079567349674
aF2.5211116959688562
aF-3.0493077192783176
aF-8.1908968824492856
aF3.9835385044663427
aF9.4911257982220594
aF-6.5674795279904057
aF-3.2696333411388676
aF-4.1096326374652312
aF7.1115781684494079
aF-7.106018463633089
aF-4.2528901277983788
aF5.0133443762369225
aF5.7393508245758982
aa(lp14
F1.5499407071132101
aF4.2043996016900724
aF0.74771552735540514
aF-1.5386507782486245
aF-3.3197558958697053
aF1.6591866822523587
aF1.315322064413083
aF-5.2753314909192301
aF-2.0786875178324347
aF0.64162481083531364
aF0.74677949679606537
aF-6.3207017741050828
aF-1.9321693044608859
aF-0.72235268225320981
aF-0.33250399161189376
aa(lp15
F-5.5404750144948203
aF-8.0655980266385754
aF9.2181199550753075
aF8.6791746187841081
aF4.662706085900326
aF-4.5756447268824552
aF1.5549080397530943
aF6.4892583445920042
aF-3.4688957270337144
aF-11.242026352557817
aF-6.0411000846833325
aF-6.6793790527774854
aF3.2530977362848965
aF-4.183892697153726
aF5.4099115791768337
aa(lp16
F-2.8076825698970875
aF-1.4412768479884128
aF1.3297358548756029
aF1.3221565995683273
aF2.922487275900322
aF-1.3858813991564263
aF-1.9382257342353457
aF3.236972318822688
aF-1.895637137852471
aF-4.7043387496880982
aF-4.114022029637173
aF-0.042218544448382321
aF2.1436542930902203
aF-0.76009485120422993
aF-0.3707963115073834
aa(lp17
F4.5582591599322164
aF-2.3536874482183427
aF1.7026647126581456
aF4.6695390028580022
aF-0.56972174366510031
aF-0.27203391527089205
aF0.1824198765886792
aF-0.72386830690039539
aF1.3321927362135764
aF-3.6278002938849609
aF-2.478502628483032
aF-3.4701241206220992
aF0.58857407363434244
aF2.837259049700962
aF1.0020137649669671
aa(lp18
F4.3280508580371482
aF-1.4796435734923745
aF1.1534067996631254
aF3.993618130551762
aF-1.7092801028560629
aF-0.35516585198017847
aF0.59728694836213836
aF-0.52739746432855816
aF1.5288051431969165
aF-1.6959642422853842
aF-1.7228391452679612
aF-1.4890490069789071
aF-0.57290082523422026
aF1.9992830164329476
aF-0.68252482181296092
aa(lp19
F-0.88641119027828474
aF1.9940950417829484
aF1.577174581445314
aF-2.1740793479444958
aF-0.72293895293813593
aF0.36166361263787616
aF1.7430843811927756
aF0.88497523514704246
aF-2.4291141006230843
aF-1.0598778417817014
aF3.1090566629326521
aF-1.0471128028330257
aF1.857500876447969
aF-2.53177699776493
aF4.4145584526191923
aa(lp20
F-0.55596419150963805
aF-0.036216669422991267
aF2.0346471695953916
aF-0.77387388027528226
aF-0.41566216998524769
aF0.15364592091893792
aF1.4971739241079298
aF1.1025934690729802
aF-1.8364894694721177
aF-1.0418903639831008
aF0.8062192797447354
aF-0.82813047627680991
aF1.3444932332674675
aF-1.7258416586936203
aF3.6704504580654129
aa(lp21
F-3.772635293431732
aF-2.8489739854832679
aF-0.93342107270918828
aF0.70073004472313594
aF4.4990329443704553
aF-2.0213108888367177
aF-2.0116484389300466
aF2.563634853309694
aF0.66112782061801856
aF0.7784993449272718
aF-3.8215547613262464
aF4.0170839808130889
aF0.5371871181917538
aF-1.303744274103426
aF-2.2306672734443462
aa(lp22
F-2.3774145478300266
aF-1.7688694183943807
aF-0.43343271423836438
aF1.4680595042124949
aF2.9763628003497087
aF-0.82821981887796692
aF-2.6459619136279118
aF2.0243052934411696
aF1.0943294621356356
aF1.4668296861489256
aF-2.0111918471155947
aF2.7450803230066994
aF0.51451097285976555
aF-0.53056250947944739
aF-1.503976822996582
aa(lp23
F3.1442928288401757
aF1.5783801056060642
aF-2.4589073718225709
aF-1.8242245032486244
aF-2.9933021083222187
aF2.1115074300312648
aF0.84992795878428762
aF-3.8015072242545767
aF0.97425077350387657
aF4.1084762571184932
aF3.4770909164778119
aF1.3762807044245178
aF-3.5451170360897093
aF1.1671821494646453
aF-1.3702395857871759
aa(lp24
F1.6431414316143522
aF0.53582117983088817
aF-2.6319519612115152
aF-1.0183510290918818
aF-2.335088949600518
aF1.5256449244275871
aF0.3354473360305103
aF-2.1907187811647684
aF0.40937165228665595
aF4.1115674786083609
aF3.1966621319441475
aF1.872813636273742
aF-3.0010867627889222
aF0.60232442359697458
aF-1.0665813222064611
aa(lp25
F2.7469425204647266
aF-0.042318473431383369
aF-0.39051311396855065
aF-0.17318389550391503
aF-1.4855519781065381
aF0.53427062064259057
aF0.1117862272061531
aF-2.0561127236649255
aF0.96863356273097745
aF1.0622152340328304
aF0.69410731769614353
aF-0.17813556090074203
aF-1.0948173237728205
aF1.681466759263827
aF-1.1417123894959171
aa(lp26
F-0.94990329453022737
aF-1.3604029328819833
aF0.17053518324821099
aF2.267921055238133
aF1.505242113875837
aF-1.1118148535500585
aF-1.0415550871686858
aF0.89429049104892622
aF1.5734732902640021
aF-0.30361403653553493
aF-2.0092308579482534
aF-0.015494984526435777
aF0.43897758984700985
aF1.2757478300309215
aF-0.59012236110937011
aa(lp27
F-2.6133842694903748
aF0.19482430063401204
aF0.10581743721821227
aF-0.34343413246245996
aF1.0775580056865608
aF-0.46818354033963933
aF-0.47346943803915476
aF1.1725226987809354
aF-1.0447431324865821
aF0.25600909638527986
aF-0.0376082817948791
aF0.73429305416177315
aF0.72772671990396109
aF-1.940711487577325
aF1.0547098779785378
aa(lp28
F0.18823265777113743
aF1.1075715427604713
aF-0.62310471215904284
aF-1.4711471117781509
aF-0.72361576674176875
aF0.67526693688460049
aF0.70566881847623675
aF-0.75302694854788332
aF-0.43510516449915382
aF0.41588365372472264
aF1.6448379416496179
aF0.077853587789610421
aF-0.70458775153519904
aF-0.93598606727673617
aF0.017081117848316778
aaa(lp29
(lp30
F2.041341452987794
aF1.4026410867799315
aF-0.20504896217561627
aF-0.11439401065517543
aF-2.4844059469151007
aF2.4209390237038684
aF-2.2457705779673454
aF1.1320548274386764
aF2.8779837525458678
aF0.079430958362499041
aa(lp31
F2.160339430330986
aF0.81658687913574501
aF0.84966739911909739
aF-2.6498608420141392
aF-0.20300422873767907
aF-0.33590468963249137
aF-2.4753383303464731
aF-0.98559120681155354
aF-1.3052576309711799
aF-0.32895651483224247
aa(lp32
F-0.49340302486106885
aF-1.9526478994784369
aF0.57151731743783252
aF0.35685006669647318
aF0.34279675261193432
aF0.95183263617480462
aF-0.21818259970448919
aF-0.80970013536711127
aF1.5878123063325007
aF1.6200120881276527
aa(lp33
F-0.19974598919070707
aF-2.0275971854246637
aF0.021985441528743214
aF2.3763632701312205
aF-0.49881890431567483
aF2.1648000410805741
aF0.31507078081430356
aF1.4773645326315537
aF2.5232943452009464
aF0.0015781443223306052
aa(lp34
F-0.82243649655904172
aF-1.4938711083637479
aF0.15957029757051922
aF0.61662973495449913
aF0.80418386178148304
aF-1.0015025463148957
aF3.0172810858956849
aF-0.018023870032075215
aF-0.89111100707116764
aF-1.6669749370852547
aa(lp35
F1.0786309110603243
aF0.86069743565634849
aF0.43907481827115308
aF-0.30253815697577108
aF-0.54617164285277164
aF0.30133258704353982
aF-0.9699498073361783
aF0.13430181682415793
aF-0.17593688423772691
aF-0.22393095865662141
aa(lp36
F0.65995241390721626
aF0.063520239153417729
aF1.2292267989830197
aF-1.503088793733107
aF0.32653102505803117
aF-0.47903675127805789
aF-1.9816142250195716
aF-1.4164871787005677
aF0.14091032042012222
aF1.5828544272462348
aa(lp37
F-0.80090069983534073
aF-3.330754325649445
aF1.4405853399080417
aF0.65723384247954997
aF1.3746430397165936
aF0.13837234289823938
aF0.80483532150385895
aF-0.79151757404551926
aF-0.72144271401834525
aF-0.0073312034228549617
aa(lp38
F1.4181516714939741
aF0.45903182473656978
aF-0.72252850082551512
aF1.5356926640904272
aF-0.21840875337269608
aF0.57786233867071235
aF0.61347329680148366
aF1.7854521116457707
aF0.77087214076382082
aF-2.0358614775980866
aa(lp39
F2.5247874822060754
aF3.9629630586572779
aF-0.75397417218025875
aF-0.84382470283905942
aF-0.66159599294769156
aF-0.45080547729557308
aF0.81197244071474006
aF1.2125534102906188
aF-1.9093651627367354
aF-2.834845293590492
aa(lp40
F2.0175254156424156
aF2.7419212492778335
aF1.172951200938033
aF-2.5674259496208767
aF1.0466664170955582
aF-1.2074882802277409
aF-1.4997229923187418
aF-1.3414039410134411
aF-1.0799943691667202
aF-0.039473135343364225
aa(lp41
F0.469494043519457
aF0.99310653335995813
aF0.0097945595302364238
aF0.8671708592775369
aF0.65825723046383211
aF-0.69355402344236683
aF3.6518579121952595
aF0.71010886329722356
aF-2.6973819186830044
aF-2.638428505785769
aa(lp42
F-0.54556529883906402
aF-1.5368668693958876
aF0.50088401708990227
aF-0.0037529281198382825
aF0.59287012293692554
aF-0.72730515746806179
aF0.75325791398481134
aF-1.5579843060304959
aF-0.57173219161310496
aF0.93748275522099644
aa(lp43
F0.28376622688619457
aF0.049047298568480738
aF-0.49890512399279102
aF0.77827955620151112
aF-1.7439182221408134
aF2.1949324431002264
aF-1.2657727451320517
aF0.60837865058832508
aF2.0256631310263149
aF-0.87525101665861194
aa(lp44
F-0.15824391656450446
aF-1.038227839875105
aF1.5670707407818611
aF-1.4422782951728803
aF1.476049242339083
aF-0.66211587192426613
aF-1.2913028627760474
aF-1.5397748346024758
aF-0.73821184176874866
aF3.5224623738468375
aaa(lp45
(lp46
F-0.053234229673745345
aF-0.36173168602143252
aF-0.25392613026523703
aF-2.139984226647119
aF-1.0068915236282199
aa(lp47
F1.0827077630692146
aF-0.10732660551866476
aF0.94770098901241717
aF-2.9466929753533178
aF-0.9317987740114938
aa(lp48
F-0.43098817067265566
aF-1.8248387078680537
aF-1.0827680137989366
aF0.15947135673722798
aF-1.2588207672386116
aa(lp49
F-1.3602455281200778
aF0.82194259806688108
aF-1.8135276732792662
aF0.95243500308615514
aF-0.27646306335457776
aa(lp50
F0.64201370586579065
aF-1.8520750439145641
aF-1.009251327909122
aF0.16125076899621155
aF-0.66885431929225669
aa(lp51
F-1.7908003178686533
aF0.83890385386411659
aF0.15500168173087994
aF-0.0073861184928069156
aF-0.57467325167722516
aa(lp52
F1.3311093933739557
aF0.64587313106437771
aF-2.80025525333112
aF0.35443853447984563
aF-0.97186194492484523
aa(lp53
F-0.54937284912261619
aF1.0085926327959445
aF-0.59143525886984794
aF-0.45454533780318657
aF-0.0348047938798468
aa(lp54
F-2.2380340171136206
aF0.17760559319377509
aF1.2779016460853547
aF0.038482098542611795
aF-0.66311836733124097
aa(lp55
F-1.0943539296627516
aF-2.6160998539941849
aF1.1248943290409259
aF1.3277553730674561
aF-0.75583770359165003
aaaa.