(lp1
(lp2
(lp3
I0
aI0
aI0
aI0
aI0
aI0
aI0
aI1
aI0
aI0
aI0
aI0
aI0
aI0
aI0
aI0
aI0
aI0
aI0
aI1
aa(lp4
F0.59555691576827152
aF0.44513485993584595
aF0.7562189087418959
aF0.70287185729599222
aF0.70097912184134448
aF0.9117767793867233
aF0.71368683860852433
aF0.69275208008036027
aF0.63345100473649263
aF0.58004169651247883
aF0.78378439842443248
aF0.63511458835070056
aF0.68256240972106286
aF0.25464283545891558
aF0.46811104188837516
aa(lp5
F0.22318387875751125
aF0.98549847492845433
aF0.9541225792866902
aF0.49578359859379162
aF0.31040131573132768
aF0.99251870410680243
aF0.18861822642568882
aF0.9922358746357316
aF0.24256434211665909
aF0.8661747481516201
aa(lp6
F0.16106054153987748
aF0.019614912123516671
aF0.36062830150831465
aF0.42527336393241355
aF0.016228197115763985
aaa(lp7
(lp8
(lp9
F-3.8508167221982905
aF2.1071427332643076
aF3.8726996560883262
aF-4.6473365354349836
aF1.2269842245705631
aF1.8053152614096868
aF2.2640811295549939
aF0.76560286198048189
aF3.0028794927366231
aF-4.0350312497052307
aF2.1959643541201608
aF-4.7078188090128421
aF-3.0804878551357819
aF3.6461632478846262
aF-3.0636173237637734
aa(lp10
F-2.1578872419108883
aF0.74418404610657218
aF1.578276465019659
aF-2.3159288517194074
aF0.81750102857911466
aF0.26862245901819309
aF1.3097014481190541
aF0.14661320748952755
aF0.65279134286421769
aF-0.77140857228909776
aF0.25258786218957802
aF-2.282127432724177
aF-0.74989645907072766
aF0.42667315548173818
aF-1.5609799793091459
aa(lp11
F2.6036088066128795
aF0.76930133412101109
aF-3.776250342411704
aF-1.4262895213046201
aF0.61474902670402276
aF-7.6092101085907773
aF-5.0640056123293631
aF2.3581867109819123
aF-1.6978004135646729
aF2.5701280186876829
aF2.8482377417984983
aF3.8498102989725864
aF-5.5127557796260405
aF4.6305238198906666
aF-2.4015548453036493
aa(lp12
F0.31561507586487597
aF0.43792174556307456
aF-1.4656912841504059
aF0.21992271406236436
aF0.52599527778859334
aF-1.4247642792328945
aF-0.45284853133486269
aF0.64524567930406851
aF-0.062312549065517239
aF0.80229351610882604
aF0.648995555338997
aF1.429140486747307
aF-1.5923268794426202
aF0.17080273735479079
aF-0.61331074706445576
aa(lp13
F-1.196261145265384
aF1.8410479936368611
aF-4.2687565964438603
aF2.0026921653983196
aF-3.5302879532084201
aF2.699302987380749
aF2.1764610896205858
aF-3.8360309202246925
aF1.9085795115732878
aF-0.49448489495370568
aF-6.2281522072163487
aF2.5635000441927862
aF5.3050969338187342
aF-4.4194539572810649
aF5.9233109524302812
aa(lp14
F0.43310883691043123
aF0.83502150971448352
aF-1.6195147719511327
aF0.44285458676709616
aF1.3388045155752109
aF0.62148898903774064
aF1.2720266869359915
aF0.35333895095950624
aF-0.022781880695700446
aF0.19118570459919015
aF-1.5479145811772845
aF0.27567642077926408
aF0.85829110700789135
aF-1.2994632702284361
aF0.89879024771893445
aa(lp15
F4.7315350323160734
aF-6.2513433993416987
aF4.038757061086935
aF4.6413180107281624
aF1.9013555812548983
aF2.5238381655378692
aF-5.1653380270483042
aF1.2720940997552566
aF-3.5332443296072502
aF3.4235868375352263
aF2.5743111158279599
aF-2.6083483028170589
aF5.083639560117498
aF-5.5058340650094957
aF-1.9769718192995953
aa(lp16
F0.20983389416736595
aF-0.91461609280800771
aF0.74731489170350529
aF0.78007527548100608
aF0.19805081834134719
aF0.79709894171797691
aF-0.13251508955678931
aF0.2178155498349999
aF-0.16908295082330385
aF0.38455090946726972
aF1.0927411989243709
aF-0.063706244147016838
aF0.4745854004314804
aF-1.6334065609631678
aF-0.69665867378202451
aa(lp17
F0.29323792101130419
aF-0.47432694286869398
aF-0.44581223566168682
aF1.1012039109703542
aF0.029311814999257068
aF-0.44952489826777503
aF-0.80912352012362332
aF0.21489914467252785
aF-0.62425367083945127
aF0.36735167537423813
aF0.10801008837902316
aF0.89312127071573544
aF0.037139152344852822
aF-0.16993155657691361
aF-0.23049609284304995
aa(lp18
F0.75400858830862072
aF-0.22784532222064557
aF-0.474111985493057
aF0.092391496839546033
aF-0.024373327511393265
aF-0.31837387142359114
aF-0.96721234335387019
aF0.24077037708883042
aF-0.57859798260779993
aF0.87311605928327563
aF-0.19292131294145079
aF0.82040599438067052
aF-0.07982037814856538
aF0.036053407652190173
aF0.60935600751239682
aa(lp19
F-0.6609047416187035
aF0.1318361048605225
aF0.28470873259175322
aF-0.36267692451627281
aF-0.054087650033228525
aF1.1848728627901086
aF0.57775722446169486
aF-0.30224906279271269
aF0.35664558695786214
aF-0.1150015998190385
aF-0.51235348513053636
aF-0.40351902503316722
aF0.074461741611299606
aF0.033650098684019393
aF0.69178303404634667
aa(lp20
F0.22850335078564654
aF-0.39614176413351671
aF-0.23110239094738258
aF0.46131700740217796
aF0.030454878136520293
aF0.13013806113078635
aF0.55157916312727706
aF0.43381319578279731
aF0.11150340396581532
aF-0.23455253831213663
aF-0.2449910511828412
aF-0.25111366355588982
aF0.38200319254475573
aF-0.33038868019623008
aF0.066404305216898801
aa(lp21
F0.088941294858913514
aF-0.69943316633948227
aF1.2466970715393937
aF0.014804458652534836
aF0.18237862518348369
aF-0.040879777793769029
aF-0.44740880799492916
aF0.071725347176254742
aF0.047400573805804785
aF0.25151237447117908
aF1.0735304160614152
aF0.081977906051606611
aF-0.84087396485297572
aF0.77515790997615475
aF-1.2652814308913511
aa(lp22
F-0.20128932510513203
aF-0.36905422043108488
aF0.69362086736100126
aF-0.36600249495122883
aF0.23546009512509258
aF-0.037685066097932957
aF-0.48295163692427928
aF0.44672601225340325
aF-0.64516156569517824
aF-0.32649505439365512
aF1.2142615549711508
aF-0.29427866486312143
aF-0.60538153307123954
aF-0.18236872215281819
aF-0.21879089979580132
aa(lp23
F-0.38417569544428554
aF0.80820050004690414
aF-0.7636726507253403
aF-0.66538310389186073
aF-0.372531586032957
aF-0.56024892620482192
aF0.69022886535405525
aF-0.15541651026960035
aF0.68180343792677689
aF-0.092064572299514702
aF-0.4013367212738384
aF0.34458779166004255
aF-0.23239869114940009
aF0.5737659159601135
aF0.27756665059829816
aa(lp24
F-0.74740895755984682
aF0.97572684452133074
aF-0.16677083207282051
aF-0.75860641659672701
aF-0.08424229635148614
aF-0.54758542791697129
aF0.092680981476099988
aF-0.082892987880300195
aF0.030519698348950599
aF-0.28415374064121762
aF-0.61606324324515416
aF0.14404637643041301
aF0.040594208827507222
aF0.013441195646572101
aF0.066458757161157275
aa(lp25
F0.25533308158504608
aF0.071329228126373129
aF0.0057726062908403869
aF0.017784523158705153
aF0.14563462032142152
aF-0.15407182886149592
aF0.38983301826739758
aF0.068610666540626364
aF-0.39055148069059803
aF0.15251278590702089
aF0.013523062816231257
aF0.8178698474937306
aF0.12359929554711574
aF0.042581679175549704
aF0.46208991930724075
aa(lp26
F0.392733089442031
aF-0.42220205791704735
aF-0.12068420779084868
aF-0.15311086564391563
aF-0.025511559170387822
aF-0.59539427184428484
aF-0.45468364209986312
aF-0.24846464474014687
aF-0.46472504590934743
aF0.068593466922110533
aF0.10993244508112621
aF0.46626445114241966
aF0.10304931353654832
aF-0.10925919422557817
aF0.12780844805112548
aa(lp27
F0.26953480846456873
aF-0.28403766503949285
aF0.16784845930959158
aF-0.17487382048706279
aF0.20652410911151642
aF0.44965770807395988
aF-0.30366347270520466
aF0.48585243207217588
aF0.43028661036050925
aF0.23323610647368381
aF0.4512324264147683
aF-0.50062211223372377
aF-0.14359586665688834
aF0.41735756793759898
aF-0.037450536011692299
aa(lp28
F0.19613610080675575
aF-0.35034096722267288
aF0.071529972804094955
aF-0.12870609834656446
aF0.32981371532456977
aF0.55573078435239709
aF0.0064544725928154453
aF0.31855823388403792
aF-0.30813662476146075
aF-0.087352047608053623
aF0.056641915143245604
aF0.27778808905676033
aF-0.50637193626310328
aF0.36336748029798799
aF-0.30570175540965316
aaa(lp29
(lp30
F0.45988652506778177
aF-0.27346704018217693
aF-0.90059925947151209
aF0.74168336102101073
aF-0.67786262073094672
aF-0.12433100468944185
aF-0.95953163569218725
aF0.93697200613377896
aF0.16384564847365074
aF1.3740813256427507
aa(lp31
F-0.18278130972157799
aF-0.047865810210243588
aF0.44191728068047997
aF-1.3562154994591022
aF1.6881625471645509
aF0.7252272294601475
aF0.29941536842272748
aF-0.068148824619792797
aF1.1349459473608388
aF-1.2735385253200353
aa(lp32
F-1.6305028214705035
aF0.68174274184188621
aF0.22465784750253004
aF0.69992924553526836
aF-0.95741265928965513
aF0.48652593828538798
aF1.1178543153795371
aF0.80955965332811997
aF-2.2684830861733212
aF-0.88531523117906064
aa(lp33
F0.7698742029440262
aF-0.15987057248282296
aF-0.3377286008005666
aF0.29632098438002596
aF-0.88608159849383117
aF0.58034891347663708
aF-1.0016724961741268
aF0.17966081795161626
aF-0.20191987570801484
aF1.83192778038556
aa(lp34
F-0.19982608058841483
aF0.06582043797725505
aF0.044588015584866816
aF0.63816477689142415
aF-0.35366513609726041
aF0.38393840161466453
aF0.36463926543528136
aF0.87435067982190462
aF-0.49208522152925216
aF-0.36547978975172929
aa(lp35
F-1.5280615242918196
aF0.98489783488904925
aF2.1277682148125932
aF-0.83752547863302496
aF-1.6187130199772355
aF0.58120393327760322
aF-0.9694919345578904
aF0.22766794358337472
aF-1.3362195428166268
aF0.43493307516528207
aa(lp36
F-0.93067260981730826
aF0.69937352344739123
aF1.9751434777824302
aF-1.6969129905432403
aF0.51329683680595362
aF0.42749117364644235
aF0.44338814384969594
aF0.11984431976725148
aF0.58581496196508331
aF-1.0094740121286274
aa(lp37
F0.39964054387011166
aF0.29831798808565319
aF-0.61977074693802869
aF0.24058743286439038
aF0.1486144579921678
aF0.41773931008610926
aF0.60822136462075593
aF0.70506106327208051
aF-0.48427189106568941
aF0.011811048244480081
aa(lp38
F-0.3367974780790487
aF0.90590447448414535
aF0.45239311632658175
aF-0.96685468079473069
aF0.9189344334278009
aF0.86357293982634498
aF0.20022970883426755
aF0.48276612205975505
aF-0.10117074013677528
aF-0.77362408890561263
aa(lp39
F0.75042769342812954
aF0.00063852969287011608
aF-0.95891222105686547
aF1.1146908931815094
aF-0.074533356252800262
aF0.41043263032442262
aF-0.62509536108092578
aF0.59490524734523731
aF0.71822313047545583
aF0.9849641560519875
aa(lp40
F-0.47420823563713954
aF0.47389180338194631
aF-1.0458758227923586
aF1.8322146958137624
aF0.36829645896538793
aF-0.10321528512951166
aF1.3396348929896857
aF0.20190483254869093
aF-1.1326816761224356
aF0.0059193926720539219
aa(lp41
F1.7564455967134467
aF-0.24569730128440692
aF-0.69559663820328399
aF0.47200339217058618
aF1.1905741287740046
aF0.58878776912616615
aF-1.1292079064694074
aF0.14875273707450837
aF1.6294585624201494
aF0.78882200811045999
aa(lp42
F-0.47254046129558502
aF0.16428774030103141
aF1.4913727446089282
aF-0.58707349325403768
aF-1.8151697303072947
aF0.15789676607862357
aF-1.8418484956623122
aF0.42961861990144623
aF-0.43065354104882403
aF1.366516062305682
aa(lp43
F0.086875107836436566
aF0.32875347570044328
aF-0.93791267632783681
aF-0.26867013623309965
aF1.9609956020011052
aF0.11426258231460008
aF1.8384072892204049
aF0.19382477289626715
aF0.67112704001458656
aF-1.468353763311899
aa(lp44
F0.83584289122886701
aF0.79804176556077067
aF0.51493222465307242
aF-1.0584054396272804
aF-0.28427521154341467
aF0.55941608996387771
aF-1.6664034312380522
aF-0.023421883441486741
aF1.0591656171532031
aF0.37043270637485393
aaa(lp45
(lp46
F-1.1400051176337183
aF1.2013076842447881
aF0.5226387914144911
aF0.017617917875032536
aF-0.40356280586129128
aa(lp47
F0.26740602727683582
aF-0.93289856421806105
aF-0.49829337196107965
aF-0.46823591087438043
aF-0.83282133170367778
aa(lp48
F0.64834207993298176
aF-2.1997323978639951
aF1.2257615336002254
aF0.0044171532501205346
aF-0.45789324333134246
aa(lp49
F-0.55434821352709374
aF0.70611936226667715
aF-1.8569319099156949
aF1.188927166545757
aF-0.14951321073762117
aa(lp50
F0.17930801786651557
aF1.261758284372162
aF-0.39667995914564352
aF-2.0572268965595231
aF-0.13516349677592837
aa(lp51
F-0.11766279231196909
aF-0.72772798610561851
aF-0.12165631194030298
aF-0.051792003555349755
aF-1.2552093751243081
aa(lp52
F1.6343914285174712
aF0.38913391430168381
aF-1.6613057811736487
aF-0.68111473502245101
aF-0.20017329876477732
aa(lp53
F-0.80543582294761962
aF-1.01431058356353
aF-0.96535378421325668
aF-0.15257465790528391
aF-0.77189235975761372
aa(lp54
F-0.93591623289219616
aF0.44715416905347877
aF1.1974393853033465
aF-1.5673815471254535
aF-0.65787169733108619
aa(lp55
F-1.9344156183498284
aF-0.45276168646499121
aF0.26617929823781028
aF1.0186708894935894
aF-0.51873828391515486
aaaa.