(lp1
(lp2
(lp3
I0
aI0
aI1
aI0
aI0
aI1
aI0
aI0
aI0
aI0
aI0
aI0
aI0
aI0
aI0
aI0
aI0
aI0
aI0
aI0
aa(lp4
F0.43608659053975041
aF0.99699160957709487
aF0.0017415888918583887
aF0.99961143889008608
aF0.99793520261905355
aF0.035494066080544562
aF0.0027772596085800043
aF0.95174847776467675
aF0.52269962334737019
aF0.95044350646900089
aF0.0069824851926697309
aF0.049778595562118638
aF0.99480893250975855
aF0.358309513129285
aF0.001722580354374002
aa(lp5
F0.32592351094108057
aF0.052411680635320063
aF0.019660190688173002
aF0.93206712403346326
aF0.9995248944371502
aF0.98730611422702985
aF0.93857392698533737
aF0.98531903304433055
aF0.98785904016265769
aF0.98550398455730837
aa(lp6
F0.019049052226276966
aF0.85602206893632438
aF0.07255056285364106
aF0.036277026593699628
aF0.012944830858122197
aaa(lp7
(lp8
(lp9
F1.2817344159554729
aF5.2183617428007594
aF6.3732582616939739
aF1.3421669530430353
aF-5.3957125284583309
aF5.6251815815087092
aF6.4414566721852378
aF1.4650087823168425
aF3.7056959121395985
aF1.9375030560277302
aF2.1181931534233081
aF2.8437211558607971
aF-5.0072185663615469
aF-6.7031137299068524
aF-5.3271013286359779
aa(lp10
F0.81280233944239888
aF0.43072159116951592
aF2.8369439769984508
aF-0.17447174355393794
aF-3.5477632632381035
aF3.0711550772209733
aF1.6248761234963065
aF0.48900193984023282
aF0.64318349072934344
aF0.67401493585689987
aF2.8278343594572926
aF1.4921623001882773
aF-1.9760591491729937
aF-4.4423514865885485
aF-2.0362471108809554
aa(lp11
F1.239174811833551
aF5.3460396928129983
aF-4.9353621616873422
aF5.8863562730853412
aF5.3111076539703088
aF-5.9128680721354732
aF-3.9190170172745376
aF1.0363775243576254
aF2.4969295952548713
aF3.9616302039277564
aF-5.6397260165529266
aF-6.9869108011486665
aF4.207004519418482
aF-4.0183766415120266
aF-7.312993549195232
aa(lp12
F-0.086935466503786682
aF0.86300776134354851
aF-1.7159539839292752
aF1.9213782525635461
aF2.1776009931052274
aF-2.6308053960855458
aF-1.2741535852339867
aF0.48198139131318357
aF0.20302629418572166
aF1.5349656392423472
aF-0.63230208860191706
aF-2.2414286233679124
aF1.9614534820454452
aF-0.25256780787352812
aF-2.249048550278772
aa(lp13
F-5.3276980208941849
aF0.057681848931730242
aF-1.4144847093500159
aF4.1875700624548964
aF1.6212772987924653
aF5.0099186033348371
aF-4.0637542272311107
aF1.528216307451119
aF-7.7814054782473985
aF-7.8472621910165881
aF3.7988625626929573
aF7.4903320632286388
aF4.0296137482631522
aF4.4281574157639918
aF9.4154728897295694
aa(lp14
F-2.4543879783937634
aF0.45741751086889854
aF-1.4174159594549007
aF1.9414574631273034
aF-0.12445151044080678
aF2.5811510610769495
aF-2.8321817214247118
aF1.9340006226937241
aF-3.2246325020442259
aF-1.9856573732278802
aF-0.25145193475602695
aF3.0327350069414396
aF0.95171450007789038
aF2.4275511346654564
aF-0.044614714653868535
aa(lp15
F4.392574506483645
aF-9.7895703478543066
aF-4.4209947965516347
aF-5.0948553024029364
aF3.6886696251498217
aF-5.4131827381270261
aF3.9544451764578503
aF-6.5286120336956799
aF3.7866383993577655
aF4.4511584113345037
aF2.3699483850594887
aF3.0249983260416271
aF-3.7204136394067202
aF6.7521460150424195
aF4.0895800449904227
aa(lp16
F1.7686557847113638
aF-3.8039049605915389
aF-1.9822464757346268
aF-2.7192262560914511
aF0.70002886289143917
aF0.02415706669111
aF0.320115082540743
aF0.5223372671449098
aF1.1122416928030645
aF3.4854673523458533
aF0.89214114752853424
aF-0.63467754280408017
aF-0.85280754413971127
aF0.2352996671818241
aF2.9434539973676919
aa(lp17
F-0.29200753203814028
aF-1.2599565096558845
aF-2.5396745025781939
aF-0.53066573925113047
aF1.8720022043841611
aF-2.9236598656278336
aF-2.2333510093401636
aF0.050433332256472521
aF-0.83652092326035798
aF-0.40844307933262403
aF-1.7225151165139938
aF-0.18115264276751225
aF0.96401904018837425
aF2.1887417005824967
aF2.3433124916862775
aa(lp18
F-0.57808262053825732
aF-1.027448408390482
aF-1.8652002852995395
aF0.44123461790918544
aF1.6872309518056414
aF-1.4827960269098248
aF-1.2866187240311246
aF-0.34829993139416071
aF-1.2879739636478769
aF-0.61401355895106469
aF-1.1652829114746599
aF0.25517776696282257
aF0.99402772186550314
aF1.4071087897010817
aF1.4318037034050262
aa(lp19
F-0.54018235531430481
aF-0.26070307751076932
aF0.65509585125491832
aF-0.57167136875567703
aF-1.286014784767848
aF2.5490134520282561
aF0.17790196914852274
aF0.24308345229127987
aF-0.79679461338507052
aF-0.95274960531486086
aF1.4651297064412894
aF1.9217979759029333
aF-1.3150235341188758
aF1.0888356827762873
aF1.410239598873875
aa(lp20
F0.2871604062894807
aF-0.75832023099689672
aF0.35022510115845551
aF-0.70093257481690308
aF-0.50105017146940178
aF0.8834738697637986
aF-0.032905265377280696
aF-0.45850635519549349
aF0.094377287266216761
aF-0.53982994672886453
aF0.31329324497179328
aF1.4194561867298754
aF-0.68381070630209795
aF0.27834463553056266
aF1.2499023640368696
aa(lp21
F1.7878626144104297
aF0.40316400718723305
aF0.56420821864194781
aF-1.2138675283543072
aF-0.49323313971640675
aF-1.7990984579296008
aF2.3787184432577866
aF-1.3875096839064014
aF2.829223809309668
aF3.0352485418451058
aF-0.2714813552526521
aF-3.1027377521717612
aF-1.3041165057829209
aF-1.5199270529864652
aF-2.2417049254790848
aa(lp22
F1.3001575033501394
aF0.07105089630581099
aF0.31832348571299651
aF-0.78674222032415053
aF-0.4048259739152742
aF-0.8101116391742087
aF0.41772501366180265
aF-1.038668828270173
aF2.0612229748287594
aF1.9083593475973426
aF-0.37330768646652085
aF-2.2254090511240796
aF-0.453109400363441
aF-0.59307352997419627
aF-1.2071538617529569
aa(lp23
F-1.3770980263367962
aF3.1383990774532111
aF0.47347697676438966
aF2.5817411264772709
aF-0.30155871586546995
aF0.8359506516678632
aF-0.061943184807487908
aF1.5756896016376198
aF-1.1348936284221507
aF-2.6436264122589779
aF-0.31282105870465032
aF-0.91175552767586809
aF1.001882672052431
aF-1.0469341784710571
aF-2.1678805930090648
aa(lp24
F-1.4938776124096202
aF2.5991297229002561
aF1.0101625831980148
aF1.8439677950128521
aF-0.22956366418925708
aF0.39316479253144038
aF-0.3154237207254591
aF0.5454040225426563
aF-0.89905138818851782
aF-1.1635285168286287
aF-0.43447259176189718
aF-0.99946726843861211
aF0.19332641214616131
aF-1.3633349863353372
aF-1.2105303587954963
aa(lp25
F-0.31480374576198999
aF0.24401202438336939
aF-0.91677115667466202
aF1.3992608296065652
aF0.60752830048514472
aF-0.46434635066736452
aF-1.2840565780360826
aF-0.12214182072731472
aF-0.26463587203048727
aF-1.2083941451317035
aF-0.96965188833993532
aF-0.54928372247531343
aF0.83204543594945413
aF0.37584519618231499
aF-0.20452882480982448
aa(lp26
F0.81917589458626683
aF-0.5134337843250989
aF-0.9705980447940955
aF-0.77428815866083622
aF0.60102882090753718
aF-1.2514195880926764
aF-0.11494536156290314
aF-0.58192315060377786
aF0.31483833081994306
aF0.92424346575553296
aF0.002821002765674329
aF-0.2512952632381989
aF-0.067151446765050332
aF0.0012205379311157533
aF0.55833798536514601
aa(lp27
F0.67381852318849023
aF0.067513294221026629
aF1.1818392464814793
aF-0.023450564528448171
aF-0.63136706728967407
aF0.32574406385902777
aF0.38672617791219499
aF0.29225152585146169
aF0.58549417231100609
aF1.0379671208491992
aF0.16245658269535471
aF0.818211622899229
aF-0.62721671311205862
aF-0.45710394079683964
aF-0.0069017379745379597
aa(lp28
F-0.32713780583795249
aF0.16741605200243551
aF0.66889586950467295
aF0.56187928768732331
aF-0.57688509582157865
aF0.81740442094072951
aF0.12914656011907677
aF-0.1761928133369198
aF-0.19579021174408021
aF-0.47552231018956737
aF0.43184580111560289
aF-0.1052441348087248
aF-0.46901558057926745
aF-0.086844782295014411
aF-0.30615427791524907
aaa(lp29
(lp30
F1.2536251700383503
aF-0.22926399754680415
aF0.79806571541271776
aF0.30818970369061077
aF0.17554010347744889
aF1.0482437269268747
aF-1.0494177965667011
aF-0.1225136058855396
aF-1.1587763136109905
aF0.14591075555197702
aa(lp31
F0.51516863833724758
aF-2.0055869505777766
aF-1.4553086534776007
aF-0.038947381616695406
aF1.7005824372464324
aF-1.0925915038168452
aF1.9966906140958482
aF0.68317791110134174
aF2.3770376800665751
aF-0.23539160461764483
aa(lp32
F1.019258381293493
aF-0.33841502910142945
aF1.4528202545240734
aF0.11397442101417349
aF-0.86946827086546286
aF-1.2784206782139456
aF0.56136640275787486
aF0.14848422751397672
aF-0.1098403124271827
aF-1.851296237867992
aa(lp33
F-1.3569874004584395
aF-0.95427089873993354
aF-1.2368780023952299
aF0.24197433248113945
aF1.2322626535448231
aF-0.49882085212408311
aF1.6100138667518256
aF0.45686538480142774
aF1.9124626228266879
aF0.67747295269409891
aa(lp34
F-0.6969400012303919
aF0.51908490763489257
aF-1.201760130496228
aF0.0016698629362607547
aF1.770839846206935
aF1.5770258089197935
aF-0.39247215044160899
aF0.53127782667941237
aF1.0800171992060457
aF2.0025169050771243
aa(lp35
F-0.29480408130420849
aF-0.42640711767635747
aF1.11374867920556
aF1.1070677809880312
aF-1.2164307033091004
aF-3.0349068395802665
aF1.9617423788398756
aF0.64904410047385097
aF-0.42101596775292693
aF-1.3916219241273227
aa(lp36
F1.448418578150793
aF-0.91765168388684604
aF1.5645505564991991
aF0.59120399909317201
aF-0.55486472342379389
aF0.08174894971704999
aF-0.69424577951188393
aF0.86066461470788458
aF-0.71846789102165576
aF-1.1227749587920761
aa(lp37
F-1.0482172765642144
aF-0.43698275853782581
aF-0.83848779609880131
aF0.5216112435884217
aF0.95440508637344079
aF-1.0987161420090961
aF1.0785595231697005
aF0.27040918791619012
aF0.86137368912298562
aF-0.047323155751644128
aa(lp38
F2.0844093435481983
aF-1.1745727642798054
aF0.090615102793009439
aF0.020488387116050683
aF0.54307796956246746
aF1.0986012081168928
aF-0.93726883279374895
aF0.59530200457650151
aF-1.1853745922165748
aF-0.64700325505399081
aa(lp39
F1.3370179121466714
aF-1.171197257212637
aF0.87836968110959568
aF0.26157409137003929
aF1.2994470071374316
aF2.3459501095266151
aF-1.2548605703278564
aF0.37040249384384094
aF-2.0713953934193063
aF-0.42923571494472462
aa(lp40
F-0.075903904114101362
aF0.27377002245439436
aF1.0134955174287967
aF0.671998940567197
aF-1.2779118390968263
aF-0.62984101159327888
aF0.030417317402676822
aF0.72255611396728003
aF-1.1511425613183939
aF-0.38636069307986526
aa(lp41
F-1.3825803925299385
aF1.9783304627935347
aF0.69205017110383926
aF0.72336948733204287
aF-3.1191151078247614
aF-1.4609527586541677
aF0.37670175699984498
aF0.94879629316445324
aF-0.74355166495881975
aF-0.29456518193688036
aa(lp42
F-1.147948815006741
aF-0.19110131163722463
aF-1.3903165817403211
aF0.36675932744910017
aF0.93599070959764719
aF0.97285288542491388
aF0.77779627896570502
aF0.52696783165261329
aF1.2373228703143735
aF1.1977289663779236
aa(lp43
F-1.7981851551192471
aF2.4704020930864981
aF-0.42193595285809904
aF0.22521467216128763
aF-0.79861961577795593
aF1.038529092718401
aF-0.65809580592245853
aF0.20658210753781886
aF0.40461714756906536
aF1.2245818335799115
aa(lp44
F-0.98165916851439472
aF3.5083144466587441
aF0.65238540956158653
aF1.2892872685434216
aF-1.9816546932365926
aF0.79659134411839738
aF-0.81906619612364751
aF0.26648092073077156
aF-1.2628376436538979
aF1.0887395135904885
aaa(lp45
(lp46
F1.1846245194534093
aF-0.081781386947129706
aF-2.0172114385526472
aF-0.33558282662154737
aF-0.56724566496329931
aa(lp47
F-1.8684622446143917
aF-1.4329517367497684
aF1.2664142317916705
aF1.2043952807725313
aF-0.58274308229101013
aa(lp48
F0.7072130907397034
aF-1.6533341277539157
aF-0.8484566787656701
aF0.63853360684084892
aF-0.75092825720844381
aa(lp49
F-0.40026239486594312
aF-1.2947660579611846
aF-0.38232793647170404
aF-0.44903755511681587
aF-0.90187284196208495
aa(lp50
F-0.20966863243470013
aF2.1467568907164134
aF-1.8338967194600393
aF-0.73517140621553523
aF0.051809059393746894
aa(lp51
F-2.129872615661057
aF1.3318223191763789
aF-1.3184743547870015
aF1.3419353153004345
aF-0.29270687843043353
aa(lp52
F0.65924543604375052
aF-0.203122135238818
aF0.7518025515411374
aF-1.8706880411630344
aF-0.81817060576435352
aa(lp53
F0.0095331259975449719
aF-1.1850041847300019
aF-0.63326632161042751
aF-0.53035047712245331
aF-1.1186491465145763
aa(lp54
F-0.63123893750918769
aF0.69504529719363495
aF1.0351346288696588
aF-2.0813099534667905
aF-0.27911684161313161
aa(lp55
F-1.5996667082744143
aF0.32180720212900565
aF0.4067421735085221
aF-0.027493463524832583
aF-0.90054049106030287
aaaa.