(lp1
(lp2
(lp3
I0
aI0
aI0
aI0
aI0
aI0
aI0
aI1
aI0
aI0
aI0
aI0
aI0
aI0
aI1
aI0
aI0
aI0
aI0
aI0
aa(lp4
F0.99454930994430446
aF0.1439886686428897
aF0.64967562910142806
aF0.88192157686605388
aF0.08028505056250089
aF0.81082760432445078
aF0.99601912372446932
aF0.027909709006279062
aF0.99995834547889795
aF0.43648242639635143
aF0.37031168403202058
aF0.14960083266516172
aF0.90092132875733388
aF0.91944694783319048
aF0.50093004226015259
aa(lp5
F0.99089274223026991
aF0.54685000495244318
aF0.75970938172256985
aF0.75783429645086986
aF0.030415790507663108
aF0.25428175828833638
aF0.00054950382468227116
aF0.79979237487123911
aF0.98481148116669359
aF0.46837009871062302
aa(lp6
F0.017069568129051603
aF0.050266985837844266
aF0.16807577185697395
aF0.15990699106962061
aF0.0030434286293567012
aaa(lp7
(lp8
(lp9
F9.969821091339222
aF-14.611688941694046
aF8.1930798361057402
aF-14.632883306449994
aF9.8269536650567506
aF1.7595988462177565
aF-1.0496867340005531
aF3.2774669869402611
aF6.7590041922546327
aF15.427133505651955
aF-6.8412886788547862
aF18.508435199816521
aF0.23374115351573579
aF6.70838387965515
aF5.2228080261807621
aa(lp10
F3.3748000893817296
aF-3.5244448814786642
aF9.5665687372508472
aF-11.771665459046726
aF-1.6359880556315485
aF-0.63102801042025314
aF-1.8242237160635379
aF1.4860342945979619
aF6.0991739272970902
aF3.570065204331673
aF-5.292852215873757
aF10.350487669260639
aF-1.681598159301515
aF4.6555808449767246
aF0.32673231617207349
aa(lp11
F4.0525883989753098
aF-21.087446893645701
aF6.7693538745763906
aF5.4602619608416196
aF10.96466798807214
aF9.6977113310508667
aF5.3098156961487364
aF-5.2922679837554325
aF3.3095364287776827
aF-5.7020142336713615
aF4.9363563074454406
aF-0.98683302751669333
aF-13.402848173797194
aF-10.653453310829663
aF-15.841155902124942
aa(lp12
F0.69873682402269377
aF-2.8886212818117305
aF-1.3171218181615461
aF3.6202727111402253
aF12.071756452165781
aF10.810683843519259
aF6.8232154461192813
aF-3.0151409725626435
aF0.50525461144100647
aF-5.0836459674771204
aF1.6449903385850764
aF-0.70754185024797334
aF-1.5585963624716404
aF-4.3542589307768598
aF-4.4842054006347718
aa(lp13
F-12.232920555141684
aF3.0036391770308337
aF-13.009513753126861
aF6.9752147547400778
aF-2.6010928082206752
aF-15.517834479828302
aF3.8117887533596133
aF5.5419685564603727
aF4.8227803781391412
aF-5.8482784309747018
aF10.909236860712021
aF-10.541504650216382
aF3.7967998590881407
aF7.9446108323369264
aF7.8939502466897418
aa(lp14
F-11.601639862058015
aF-2.7995540581956915
aF-4.5325504770439
aF2.9449061459994303
aF-3.1401500106601152
aF-5.7921456184191857
aF1.5013353804722704
aF-0.43596905577881589
aF4.8180777907195447
aF-7.2448211282658317
aF0.65575942341156002
aF-6.8218916120721005
aF5.689984005542609
aF0.16789439645712614
aF11.00620127080308
aa(lp15
F-13.42460004969886
aF13.306553637264049
aF-1.1778566217089448
aF15.234934943180541
aF-15.080440948515859
aF1.2845954244667064
aF-12.971267992630903
aF-8.7884049694434214
aF-14.977630188492135
aF-0.33320668752726473
aF-4.8231225473352364
aF-10.744270747309217
aF3.628768225967681
aF-2.8702248559835417
aF1.8815464012200052
aa(lp16
F3.3180624828743603
aF13.358131341541437
aF-0.26442839283790048
aF1.3560795033332766
aF-3.9777498423233824
aF2.6873164909066176
aF-2.5489569725699659
aF-2.5262601747226614
aF-4.2324934402193408
aF-0.72682331062903094
aF-3.1783065998983742
aF-7.0565324643172538
aF6.1432306386261493
aF-1.4796177213966761
aF-1.3519282476261565
aa(lp17
F-1.8984761961485936
aF3.5869010225770483
aF-7.0126957134386014
aF12.591617248763256
aF-3.5809270965523674
aF-1.3868834799415486
aF-1.0106027253058425
aF-2.1556855481188424
aF-3.8718562565828543
aF-13.648074123046385
aF6.2949105488437249
aF-6.8296800499511203
aF-0.35680595576127566
aF-4.3662637762371475
aF-1.8992845083397198
aa(lp18
F-1.4889793308952666
aF4.5635668496984145
aF-7.3482308381713315
aF13.432975066996766
aF-4.8525195108462453
aF-1.9504051344359281
aF-0.62659695611488697
aF-1.7231367954520422
aF-4.2960357518434389
aF-12.314754329452757
aF6.3272625163842831
aF-6.7879111891576711
aF-0.18118367586780576
aF-4.2660976575164096
aF-2.1249907508988035
aa(lp19
F-0.66908434510898429
aF-0.2261398617738242
aF-0.33223490028715263
aF0.74459851142963118
aF-10.67090350084224
aF-7.5379675330280644
aF-5.6326806859981238
aF4.6176318110099031
aF-3.3235698242114586
aF3.5901361003186429
aF-1.4229435510500927
aF-0.7552364747442819
aF2.219281041939221
aF5.5394426459314863
aF5.2235932105737115
aa(lp20
F-0.51383157094773002
aF1.3455552584105142
aF-1.1262757063073465
aF1.8908043950193367
aF-10.779534944258311
aF-8.5674529192088382
aF-5.4801862283664144
aF4.1100713456958244
aF-3.4234975003620844
aF0.95833327213916741
aF-2.4881493229056701
aF-2.7174101849113326
aF4.0799263520718068
aF6.1288746176678073
aF7.6434977050933206
aa(lp21
F9.6951688959534099
aF-2.4718473946425288
aF0.57685642921573588
aF-1.432278807805933
aF0.79801460192577534
aF9.3062399561807254
aF-1.6417022352472634
aF-4.7368637809529419
aF-3.3562035057652175
aF2.9888238513982599
aF-10.447363305626888
aF6.6056328250295433
aF-6.2595984457818226
aF0.86222637115471312
aF-9.1673857877506997
aa(lp22
F9.9303563048627836
aF-2.1111812218744368
aF0.31880976476089873
aF-0.97243232000798552
aF1.2945477235434677
aF7.4643596136861419
aF-1.3893360797344978
aF-3.1026516555192569
aF-3.1336533444554644
aF5.268463237133747
aF-10.241635295923535
aF6.4785325694080509
aF-3.185867944967308
aF0.041977404379962294
aF-9.5640060189710372
aa(lp23
F1.8878927116490747
aF-14.926182178366526
aF0.92781147399069475
aF-0.22402173279302534
aF1.4828116574423347
aF-1.2223637934140148
aF7.0689712710264301
aF-1.0519724145520806
aF13.318515441857226
aF0.54024511557860633
aF1.9744111942692684
aF5.2616370736014835
aF-4.9051642834199036
aF2.9786010000499346
aF0.2769947151429541
aa(lp24
F3.7650046430228361
aF-13.389722916614915
aF0.58297469863809415
aF-4.3695153091430958
aF1.7862275721662111
aF-0.74200614070072879
aF7.2509401169383754
aF0.66972816312992312
aF12.480559506066895
aF0.26632850490342791
aF3.3591004695794027
aF5.9850066953605205
aF-2.6920147573119451
aF3.9692601163403425
aF-1.7964231702494298
aa(lp25
F-0.84201734786528382
aF-1.6163328083013568
aF-4.1705110206849394
aF1.9509316129138319
aF-0.55863953335790784
aF-2.5043482560413475
aF3.9665143713758471
aF0.14052370364962571
aF9.2459783212248023
aF-4.9364125207611123
aF11.185789364699607
aF-2.0420055027672217
aF-3.387304739302115
aF-4.8922104452457473
aF-2.8561787304317496
aa(lp26
F0.016133568219315293
aF-0.13498360477498175
aF2.2544817198958182
aF5.1074883790947991
aF-0.92130020207803442
aF5.707117942716625
aF-1.6351352797542213
aF-6.7292849352327204
aF-7.9968510353215621
aF-6.445038991302309
aF-2.8223233955030049
aF-5.6361856639791057
aF-2.3357479062633915
aF-7.904560643520159
aF-9.6356561554576743
aa(lp27
F2.5902878317407976
aF-0.13735947918573052
aF0.84864711630443312
aF-1.0523406219565783
aF-0.43446271930411567
aF0.71772030311173085
aF-9.4348755559747364
aF-0.12472923061130173
aF-4.5403045982171317
aF6.0460559385486912
aF-9.5626307015608845
aF1.817629534984843
aF2.6892981761903729
aF-0.50601205103368763
aF2.400049384310083
aa(lp28
F-0.29214924631100603
aF-2.7703852028944356
aF-0.43721869126296758
aF-1.1211475802432436
aF1.4706881720507248
aF-8.2496221430140526
aF3.635102689921911
aF4.4679731595204197
aF7.95047826835245
aF4.2832961143504997
aF2.7507612750267927
aF3.5407550923525259
aF2.1375715427481654
aF7.4579660011518332
aF6.1171121726980777
aaa(lp29
(lp30
F-0.3219293502251554
aF1.9983176196527384
aF0.97205767139300669
aF-1.4267055667860737
aF-0.63472045042031899
aF-0.29356518703061335
aF-3.8190339560983939
aF2.7683953365956682
aF-1.4891016308188048
aF1.846070935559935
aa(lp31
F-0.054868504322817042
aF2.3118514039143387
aF6.5387456914680513
aF-3.7516016016295022
aF-3.0120184833765977
aF-3.0267623541838886
aF6.3838113296995003
aF2.0422119818552193
aF7.5205744116499158
aF0.25946047394288801
aa(lp32
F0.71655777987021929
aF1.1852106399007205
aF-1.4755533989894849
aF-2.3268038382219185
aF-0.33865762529500615
aF-1.9061088290531369
aF-2.5854568718533355
aF1.1394102354594902
aF-0.71451909289625415
aF0.53100932294393033
aa(lp33
F-0.59006328991443724
aF4.7153627299320311
aF5.4249740012767278
aF1.8926909879109466
aF-3.4197501546698765
aF-3.3005295750963013
aF3.4618344218434713
aF0.85181927590313267
aF4.880478048042777
aF-0.48877992263449355
aa(lp34
F1.0695490277134463
aF-0.27180348180934322
aF-4.2519201380582485
aF-0.059216300379806082
aF5.2497336439967262
aF-0.42629462216934655
aF-4.0728991876429106
aF-0.67268937005646268
aF-3.4789657693788034
aF-2.2199401245527959
aa(lp35
F-0.012832557091153109
aF0.57160646653471059
aF-1.7262828417328822
aF-0.66954015437688108
aF5.6928239005345871
aF-5.1297049063126661
aF-3.8165340765592615
aF0.23737414569709731
aF-2.6486401261143442
aF-0.47199546669368092
aa(lp36
F1.4252460219937597
aF0.19806480941931937
aF-2.8917905019722716
aF3.9441240538768567
aF1.3444857414367744
aF-0.64311246897405516
aF-2.7566264617270968
aF-2.4725220840820441
aF-0.38688514005731822
aF-2.1894322715469801
aa(lp37
F0.54422585328599515
aF-1.4234672775185775
aF-0.7880351828363481
aF0.35061009757619738
aF-0.48899137266415438
aF2.6197645503685387
aF1.2761431267424983
aF0.24842753574576748
aF0.54463264806633815
aF0.21429728440923698
aa(lp38
F0.88624099433593084
aF-1.7804305778754996
aF-2.7855977194600507
aF1.2309610840868426
aF-0.43452523587971997
aF3.0665694608303142
aF-1.5333916081789545
aF-1.9613715899585984
aF-1.5703645541775215
aF-0.86483504314671533
aa(lp39
F0.30507561869608646
aF0.0061160787569839049
aF1.3645998673689228
aF-3.7599342425123048
aF-0.35180183006891419
aF1.7598081080178458
aF-1.8145996183620243
aF4.6237678261906048
aF-1.0454346121903682
aF2.8992480160125829
aa(lp40
F1.4439366413930144
aF0.34826379144979241
aF-0.75222406592350033
aF3.4568984084705248
aF-2.0130618611252578
aF1.7070271309020766
aF1.0862095990227811
aF-1.8351774178593503
aF1.3558116117019852
aF-5.2242709456155794
aa(lp41
F0.99464503144865446
aF1.2854478860002376
aF-0.56533887330101784
aF1.4151571799829128
aF-1.6436039623447516
aF2.0699037823811897
aF-3.368946747748367
aF1.6629032019244547
aF-0.34674196058085283
aF1.3012789260310815
aa(lp42
F0.30957461837885192
aF-1.1903077346575899
aF1.2291565142965897
aF-0.53892633273117663
aF-0.30067163067108982
aF-1.1651202894008137
aF0.2030803100132908
aF-0.12096760451316756
aF3.4305058235766839
aF1.3605517954575046
aa(lp43
F0.23573127499688046
aF-3.2986883797529298
aF-0.12405418791488421
aF-2.3523229464711601
aF-3.1758890335284744
aF2.0753000561232109
aF-0.276478760874663
aF-0.084840485400773991
aF0.0044675544518229032
aF1.3237307358182915
aa(lp44
F0.73910151519778966
aF-4.1320394760227037
aF1.4155913022083437
aF0.11192277050740325
aF-1.5102921552200241
aF3.7058569208163807
aF3.2924409591983608
aF-0.52144802637988608
aF2.0182948526675157
aF-0.56820611762738704
aaa(lp45
(lp46
F-0.90078370367388438
aF-0.62849231219112911
aF-0.8485120156556577
aF-1.8514186358410352
aF-1.9796770329348972
aa(lp47
F-1.5774521376357564
aF1.7671265647301277
aF-2.4910297193917645
aF0.73827927075002364
aF-1.3114062849429338
aa(lp48
F-1.1424657248834649
aF-1.0767984278880767
aF0.13553134944658848
aF1.1479005853796211
aF-0.57634810327328478
aa(lp49
F-3.2058575820885116
aF1.5512358474216947
aF1.0570784207444563
aF-2.641218230650451
aF-0.6986380624426648
aa(lp50
F0.24145183652781865
aF1.2233599128840638
aF-1.5841963480689014
aF-1.0399481543863884
aF-1.400076701882853
aa(lp51
F2.4041689444232972
aF-2.5691602911847533
aF0.99412475726688254
aF-3.2080877600653195
aF-0.93446054031043102
aa(lp52
F-2.4465039673528128
aF-1.6118675441151038
aF0.69468391342650515
aF1.3748773331492266
aF-0.44801969370307532
aa(lp53
F0.84375480489099841
aF-0.33360498977955766
aF-2.2717870801619293
aF0.56907846287391894
aF-0.84267061313386515
aa(lp54
F-1.0622908103699014
aF-1.6373631875651897
aF1.2154475224244572
aF1.3649585635261372
aF-0.99905954013945797
aa(lp55
F1.6042724147317311
aF-2.4482013921749237
aF-1.8619677783503195
aF-0.13250796961684855
aF-0.45064345964122154
aaaa.