(lp1
(lp2
(lp3
I0
aI0
aI0
aI0
aI0
aI0
aI0
aI1
aI0
aI0
aI0
aI0
aI0
aI0
aI1
aI0
aI0
aI0
aI0
aI0
aa(lp4
F0.078270117256752231
aF0.97058622971799524
aF0.97229680130651319
aF0.97522400697474987
aF0.88791243268841524
aF0.015688793912864249
aF0.99960645236060131
aF0.99796767108383944
aF0.97294195102151737
aF0.21060730844679285
aF0.99731850471279981
aF0.61941334027901129
aF5.4060068568919464e-08
aF0.23780581195662279
aF0.88480627327222394
aa(lp5
F0.67959923752735985
aF0.18253055438629187
aF0.99458357195370051
aF0.15207119343155126
aF0.86162995715686885
aF0.00010431316568417554
aF5.9638245872059138e-07
aF1.4229078389506739e-07
aF0.00031156295059125701
aF0.017401656308720856
aa(lp6
F0.11069131747088165
aF0.060891820932753721
aF0.14155723010070312
aF0.44800024162714763
aF0.0098740648091751922
aaa(lp7
(lp8
(lp9
F17.029179331026526
aF14.147888026193312
aF-15.402939779579125
aF0.3508863836106389
aF-9.2263394140403019
aF1.481684710670506
aF-3.2940201908156159
aF11.298024547206506
aF1.7686052990141088
aF-16.921120732562805
aF13.20807565667501
aF19.965622759727339
aF-22.873501079191719
aF30.18676540024931
aF-21.889861244095062
aa(lp10
F5.4512307715951689
aF13.475689449144769
aF-17.10668593442837
aF2.1827590979983911
aF0.069477685573368364
aF1.7706118926764831
aF-0.45443620316965666
aF9.1132029783892019
aF2.3410382631839917
aF-8.1649865628938922
aF7.5831437344416441
aF1.1766947422554521
aF-6.8024056661805536
aF7.542382821522593
aF-7.0812302927855377
aa(lp11
F-19.369980143855191
aF13.684320099705417
aF1.5658314317560966
aF-14.901125360742059
aF2.9266204060613297
aF25.201386170372331
aF22.364183562525458
aF-13.677173459356959
aF18.704757055231475
aF11.816486025575678
aF-1.9178915925218443
aF18.40737963344867
aF-5.4960836660274994
aF-10.501933984450229
aF-22.026404875563721
aa(lp12
F-10.825055710929815
aF14.94661852620937
aF1.5006111653312952
aF-17.113736823895813
aF0.82274745847505704
aF3.2402966684752093
aF4.9934710461289624
aF-6.512147341008383
aF3.3226878435471154
aF1.2864773348296892
aF1.3677380548032338
aF5.1001376497748652
aF-6.9579877492183764
aF-3.7938211046778494
aF-5.9398914364581739
aa(lp13
F10.775847504796966
aF-1.9151684200976369
aF18.375836730384282
aF19.662204169373279
aF-16.95984201278884
aF-10.023578054673898
aF-12.292736817869327
aF-16.628022764676665
aF-14.180156099682504
aF5.8337544470530593
aF-20.658510951397862
aF21.118015969547127
aF-4.9908851487856696
aF-15.204393685191832
aF18.936057503068994
aa(lp14
F4.86941763153495
aF-9.0022057362883068
aF7.5449690303903729
aF5.980383110833257
aF-16.425217318605803
aF-11.795626439888432
aF-13.971127759173905
aF-11.466052394655822
aF-14.540976030433749
aF-1.2856644788719243
aF-5.4260085588074105
aF5.0377002650463405
aF-4.8995235475485108
aF-17.873405587689032
aF0.54324220218651698
aa(lp15
F-2.354847977198264
aF-33.208196768025559
aF19.756547458127098
aF17.487410984917435
aF21.226092642301094
aF-9.4347029599829586
aF-3.2643230258936828
aF21.788341330813157
aF2.3333225764404282
aF7.05101338345853
aF8.5182786861262638
aF-16.393943344303175
aF20.341329809878957
aF6.8955790900261853
aF16.240517233460285
aa(lp16
F-3.0992199334370185
aF-8.3468625882256529
aF0.81966607185879092
aF3.0765560185858676
aF10.660239934614829
aF-12.616342979086433
aF5.5796404914952991
aF7.6388375585987562
aF3.6699490728979023
aF1.941955580855274
aF7.1098464489821289
aF-17.823311597750564
aF1.7315691942027447
aF3.4897535300078872
aF17.879424586081974
aa(lp17
F-14.127636334952935
aF-15.356423335796887
aF17.900103428626725
aF1.1703776968518991
aF2.2482918647752346
aF-0.48355713604837269
aF2.1917551126301404
aF-6.4799334566942042
aF0.72208721614552729
aF15.512184689907031
aF-3.1885313791735683
aF-0.71136260343159696
aF4.5897715749946792
aF-9.3553942481835577
aF13.002555662196141
aa(lp18
F-8.3204335700514882
aF-13.399862987171108
aF17.333199259674934
aF-1.2663469565120156
aF1.6991590966975967
aF-1.1533560539829133
aF1.7695938029694285
aF-8.3467301710384536
aF-1.2509257832354199
aF15.036014625245587
aF-4.7855485640665547
aF0.39202384853747146
aF7.1662943015578415
aF-8.1204055527861385
aF15.01474055995793
aa(lp19
F5.9616907846351639
aF-8.8284821959837529
aF2.4341076117739848
aF18.650918024481996
aF-3.1964484849282981
aF-2.7254193935455464
aF-13.320619818812354
aF3.4854646441383541
aF-0.3393445784935854
aF-1.8625646578805968
aF3.7739211883851782
aF-4.9014034327996585
aF6.4378896464079736
aF6.1919501445446565
aF7.7903695649158893
aa(lp20
F9.2557282707098256
aF-6.5951829313626273
aF0.2585650582367181
aF16.511077893654143
aF-2.2450808154098749
aF-11.381397970460299
aF-14.590525761050788
aF6.5619463085481842
aF-0.50867210318076972
aF3.8624624678710928
aF2.9023089091804866
aF-2.5274953798890594
aF7.8946886673731695
aF8.1406740065198733
aF11.196015571435108
aa(lp21
F-5.0061806343497564
aF10.548198299520617
aF-7.0409009092851846
aF-4.7334583159645218
aF9.596649995651731
aF14.787510377254801
aF11.175888256317588
aF11.946866940786062
aF12.787613290575425
aF1.6759947683692127
aF15.082769964007504
aF-0.82332206268610919
aF4.3636637046330877
aF15.888956613859603
aF1.7888562449463525
aa(lp22
F-5.344828167895999
aF9.3659240559985477
aF-8.0576420356458875
aF-3.1127388976404484
aF8.0708681720282094
aF9.0364790059232387
aF11.711510696499543
aF7.7460240459520477
aF14.319406406302996
aF-0.29380050618516684
aF9.0114880268399613
aF-1.763537855473764
aF5.1496510703050733
aF14.439801679760452
aF2.4575616892932577
aa(lp23
F0.1441439482463801
aF10.753184624992025
aF2.1963549545404475
aF-0.21153968558724212
aF-8.763210245692818
aF8.3617650625676987
aF1.2606746355108864
aF-2.3867116715455978
aF-1.0353637787921297
aF-3.1123856130116008
aF-2.1628714318290592
aF16.215198254773213
aF-18.464813467081463
aF-4.3994510493967214
aF-16.259807819151831
aa(lp24
F2.3520539287173396
aF15.073053879592475
aF0.76407879681116908
aF-2.7327737308467861
aF-10.513884211703125
aF10.037244595561935
aF2.8796316853186941
aF-4.7137151502926562
aF0.48022566261475053
aF-8.0549752061661319
aF-4.2076521856388585
aF15.869849540135679
aF-11.237109471907933
aF-5.4060101969764762
aF-16.943589934318425
aa(lp25
F-11.251078680862715
aF-2.5404829725728368
aF0.23105835165695526
aF-3.2436864590358709
aF-6.4367810831939822
aF4.3474098160386196
aF3.8816778975344621
aF-11.403119698339427
aF0.027656379649042825
aF10.199709641405333
aF-8.7730144206168514
aF13.816664318822292
aF-5.6706956713758627
aF-12.719602294404821
aF-0.63038324648881217
aa(lp26
F-16.359528263082009
aF-1.8162137372294858
aF5.7246426812696249
aF-6.3967927370191635
aF17.236699885076284
aF2.3957010633074143
aF14.333938700388817
aF9.3111645090283712
aF-0.64417576586110015
aF12.859955341974391
aF8.8745220981716599
aF-0.51518890434615416
aF9.7381690466145177
aF-9.9941517345154605
aF-0.86052695530973455
aa(lp27
F14.941584307335541
aF-2.7049823738324026
aF-7.2201524882446613
aF-3.038364174362489
aF9.0945632978078024
aF-7.6269537024054035
aF-3.5682213489814303
aF17.469955010125449
aF1.5188777461443714
aF1.2666556813032321
aF8.8479326238325182
aF-0.82996427447829157
aF5.331759925093805
aF15.428490683448
aF-0.5455894759189952
aa(lp28
F16.704221710381525
aF3.8151839017406384
aF0.011729277621658447
aF-3.3773737831225894
aF-9.2762100930348197
aF-6.6948187442088329
aF-8.544107535470328
aF0.25579274577491912
aF-0.63971622572610864
aF-12.451585437660778
aF-8.60098602920886
aF15.844535497118137
aF-4.4845047014287447
aF6.3856792863076581
aF-1.9494817093040711
aaa(lp29
(lp30
F-4.0543739096878433
aF0.12073173220942904
aF0.77337659389784297
aF-3.2978468341737686
aF4.4810509550108151
aF1.6218546860489367
aF-0.98560889885338065
aF0.2211624196958511
aF0.84227859157624763
aF3.7101489347767522
aa(lp31
F-0.71178430980843277
aF-3.1498529435242713
aF-0.23028416658571293
aF0.49484835137286021
aF-2.9657461221965833
aF-6.7249918357414575
aF0.85361318002990372
aF-0.76281132887613379
aF2.0750149058316536
aF1.0886181018602561
aa(lp32
F2.8444599529349843
aF0.92568952853440334
aF3.5026418944585287
aF5.5805706123044452
aF-1.7396156503551372
aF1.8342209839970092
aF-9.051110704693496
aF1.9585104001961577
aF-1.930636775342903
aF-8.1818009868520623
aa(lp33
F-5.5002233856655236
aF0.77131188756874625
aF2.2711453207762751
aF-3.1790478911399638
aF8.2204798187618309
aF3.5434954855627385
aF-7.7708489077694871
aF3.8103693282271505
aF-1.6436942802279995
aF1.9498150804781951
aa(lp34
F1.5369025495709325
aF1.8566386010253422
aF-0.27494021560625753
aF-1.5400626998954254
aF-0.89765538832267822
aF-0.7768796540277384
aF-1.7353201180820172
aF-4.3426582152580906
aF-1.8772741003003803
aF0.39847455112925168
aa(lp35
F1.7720673636174009
aF-1.262512687417527
aF0.24936491044475523
aF2.0533021163800496
aF0.37535233645204635
aF-2.87101492787937
aF5.2299345107123703
aF-1.1271871839749683
aF5.3399403320468029
aF-0.20561690073547323
aa(lp36
F2.2547234120951551
aF0.49480811400553243
aF-0.34114191590928039
aF-0.1040734299777856
aF0.82426261414864976
aF-1.5315515018528918
aF1.99528802697473
aF-1.5214755373374891
aF2.311433270910646
aF-1.1502783326826476
aa(lp37
F0.44804269294594029
aF-0.38984095888614972
aF-0.10976091334492408
aF-3.0071664179898336
aF0.88479317889629983
aF-0.33945058928532529
aF-0.093686489657097027
aF-5.0831795100371551
aF-0.50430462727034031
aF-0.12207125733382017
aa(lp38
F0.47395242275549809
aF2.8531279486658869
aF0.92835780465079987
aF-0.85187504953084414
aF-0.52560487318204108
aF-4.3129390505463592
aF3.8569241204893912
aF-5.0513874914326822
aF-0.30099270931384287
aF-1.3571915561633991
aa(lp39
F3.3156846674051259
aF-0.32395683173808643
aF2.7646332014755211
aF1.6400446159402038
aF0.21814335494595147
aF2.2854374873286911
aF-0.92365134354161538
aF0.85677755718605153
aF0.82239375191760211
aF-4.8131561881477731
aa(lp40
F-0.54102462333628487
aF2.7293175215986607
aF-0.20271305315949084
aF0.54396869932228786
aF-2.340446674550273
aF-2.6237357919044531
aF0.93359426087117248
aF-2.9628606671982025
aF-0.63772605900858548
aF1.4286845775791572
aa(lp41
F-5.3749593257377466
aF-5.4805962085170954
aF0.40321912246684355
aF4.3428102345970618
aF-0.25137256051867907
aF-5.4130456708286792
aF2.6384494999155836
aF3.7151737637093993
aF5.0257655377802184
aF0.26493407913079797
aa(lp42
F-0.031189455808532073
aF1.7464568091735568
aF0.49154879950246638
aF-1.3472728057366361
aF1.7179487049944464
aF2.2246546213089258
aF-3.9479389077480227
aF-0.19062710025253346
aF-0.06402992833987714
aF-1.7726000477765709
aa(lp43
F-1.3878398087298387
aF2.3053139048709324
aF0.7372792591862023
aF-4.9618462494836892
aF4.8877729531066505
aF-1.7370081384044616
aF4.675460478756599
aF-5.2811576972036169
aF0.28793917632531779
aF0.99756505713997312
aa(lp44
F3.7790927504810914
aF-4.8911967738447668
aF-2.5298039987784002
aF-1.7460450231699034
aF-2.2586158977065569
aF5.3064449568550618
aF-7.2136564939603183
aF-4.0137561690069674
aF-10.542071792611891
aF1.5573959042883869
aaa(lp45
(lp46
F-2.3223804792870619
aF1.4435058132878109
aF-1.1892901205764004
aF1.0085484914004355
aF-2.3218632833654809
aa(lp47
F-0.6532186343957268
aF-0.34731997564318051
aF-2.9556767280078216
aF2.1776577174178202
aF-0.96581166044913747
aa(lp48
F-1.8400707836130823
aF-1.9198269850227345
aF-1.6247616200308692
aF-2.1683588125211046
aF-1.6214415530065744
aa(lp49
F-1.6888563613251302
aF1.1792454765355043
aF1.6074166902591995
aF-1.6214833497007075
aF-0.89394717109500399
aa(lp50
F1.347816278672672
aF-2.1827841755543882
aF0.72684190220106759
aF1.2153211497013976
aF-1.2640112576481497
aa(lp51
F-2.5681759413329179
aF-1.6380759362635327
aF0.74108440994578839
aF1.0645029681024352
aF-1.5671647644911404
aa(lp52
F0.83751036639786658
aF1.1517877700509156
aF-1.1472457919698598
aF-1.4884166198509388
aF-1.1173978781249323
aa(lp53
F-1.4110356762733038
aF-1.8022242991765427
aF2.0756230256463426
aF-2.5233280384468912
aF-0.74251568055137196
aa(lp54
F1.1693897559283786
aF1.5458407810054979
aF-1.4765564828347022
aF-1.0961048887945495
aF-0.73603999122022656
aa(lp55
F1.3551154218203059
aF-2.7029201130368925
aF-0.61123052317791082
aF-1.8981058401536455
aF-1.5882017800771702
aaaa.