(lp1
(lp2
(lp3
I0
aI0
aI1
aI0
aI0
aI1
aI0
aI0
aI0
aI0
aI0
aI0
aI0
aI0
aI0
aI0
aI0
aI0
aI0
aI0
aa(lp4
F7.4699916638517728e-19
aF1.6975800342951358e-11
aF1
aF1
aF0.99990872238978368
aF4.8493286864784637e-05
aF0.99999706255608611
aF0.0066821835988688108
aF1.9313566133765935e-21
aF0.9998856581037302
aF1.7442458549359591e-29
aF1.5844455680287931e-21
aF2.3605261382884429e-06
aF0.99999999999999711
aF0.9999999779074269
aa(lp5
F0.99216004317122863
aF0.99845368790797906
aF0.75070231021811595
aF0.00011912027512157207
aF0.98833805665172103
aF4.052255986473791e-15
aF3.8268581514505887e-05
aF0.99999871369918181
aF0.00010730660874096185
aF6.1768696027778906e-05
aa(lp6
F0.012797598396117757
aF0.91573592317561481
aF0.015334681259863637
aF0.0013051328122277049
aF0.00069714065364879629
aaa(lp7
(lp8
(lp9
F-24.900827317097022
aF34.269004923034494
aF-61.076956431477896
aF-34.562406666920417
aF-31.694753176696423
aF24.666048178636157
aF44.583112292130465
aF-29.868478636604348
aF-24.462790108076206
aF36.791475080593884
aF17.336576282834308
aF-5.7253037959694444
aF-11.102706042974939
aF3.0471295957926428
aF68.067006221824698
aa(lp10
F-39.593682648912875
aF-8.2111481597437859
aF-4.5771175771838113
aF-15.576889586299208
aF0.71799975347063993
aF-1.0446961756837116
aF8.9696461141139352
aF-14.255567007753804
aF-11.323731648038875
aF57.031416579229948
aF11.831580899943114
aF14.462793538166657
aF-21.275096992187347
aF-11.436450237019177
aF41.960658095184407
aa(lp11
F-29.522565333950716
aF-5.3813753267904527
aF29.511397086249641
aF29.387865907886908
aF5.6120043715823176
aF-5.0620033578323937
aF-14.953362368163104
aF-12.742773796090315
aF-52.261284541303048
aF14.518680970160592
aF-35.285833336503615
aF-45.229222209167602
aF2.9230976214047031
aF43.033074189434899
aF4.1678269635022787
aa(lp12
F-18.01596709183838
aF-8.715695134038894
aF-6.0281900197337626
aF13.295825162254129
aF15.864368647850684
aF-17.267023937764218
aF-0.57132162941541798
aF0.28224877806006005
aF-11.013554225060727
aF36.103108402324892
aF6.0749393480091607
aF-42.933050545320945
aF4.8266131576713995
aF-13.864909028756585
aF-4.8787875534571707
aa(lp13
F23.300134996555691
aF-32.585642019933609
aF18.841209548571008
aF9.972125645680018
aF40.81167807453496
aF-36.231781749727887
aF64.620632807187263
aF57.132002832247416
aF29.362333617827474
aF-23.806328735304291
aF-38.992862383206685
aF4.9604436178197435
aF-17.277198126856735
aF-48.779841666320394
aF-1.3052864275052245
aa(lp14
F-12.215969939156654
aF-19.417856968457119
aF43.219770497202589
aF13.094218557386784
aF3.6896929928301723
aF-4.8719820252963917
aF26.695120261645719
aF7.7298303476898633
aF3.5652202529056982
aF-5.4422868455551461
aF-30.932812072978923
aF-3.6640553615376157
aF-16.879717270422486
aF-9.5595515635373562
aF12.483300425924373
aa(lp15
F3.0467951458199214
aF-30.778431979065921
aF-49.831066113427354
aF34.647699315193741
aF-28.337800040952203
aF-10.556861403653143
aF-2.1173565132264693
aF-14.974013824656662
aF40.837596624720177
aF-17.217318921626717
aF20.182763374688772
aF10.059006422920774
aF55.983671294826593
aF-15.134058118422013
aF-3.4204410651994857
aa(lp16
F-17.20143025520121
aF-20.540090923319017
aF-3.2394246838102805
aF10.134119350948229
aF-35.634578187160933
aF-35.496452399247417
aF-14.685206541372978
aF-2.9370917661415721
aF-24.807895622246559
aF-18.215969734953276
aF-7.7251594557232508
aF19.361205851790722
aF-19.00433828350959
aF-6.4183281019125751
aF-18.607074083883351
aa(lp17
F7.5988678669093463
aF-0.82321502005745029
aF14.594665040398484
aF13.810076225743611
aF-3.1577022494118592
aF-16.490344452782828
aF-8.9225037239636968
aF5.2792367704136334
aF-0.51084127274326774
aF-1.1148400569606443
aF-18.713792773691239
aF-0.88628471206781267
aF13.24464859300247
aF3.1038273899209945
aF-23.161324861501921
aa(lp18
F21.81443553741094
aF0.31660573421589633
aF34.499630105586689
aF7.8606783521136423
aF13.238035429292777
aF-18.727864049121361
aF-2.418248228893888
aF14.956689954243325
aF-1.4233438335115787
aF-4.2192034484295258
aF-30.372464502851969
aF25.439018527370582
aF12.573624782470535
aF-2.0144985102432011
aF-14.401888427589046
aa(lp19
F7.8204697301287229
aF0.86939467543877713
aF3.5623303604046739
aF-11.484642960680059
aF-4.3535104035452958
aF5.92564135684938
aF10.499831697081365
aF0.92176138397596907
aF16.698345959855704
aF1.1144453723360317
aF32.175969978935456
aF8.4254434076800031
aF-11.67970033420654
aF-1.622494260428041
aF-9.5296256417402816
aa(lp20
F3.084244938986294
aF-8.6100495246104742
aF-11.455317371238632
aF-5.778674288086374
aF0.96010890218043277
aF-4.2832373584256409
aF1.1282469469323819
aF4.776531421432086
aF19.570829912793645
aF-5.9043102210630325
aF13.800827349817331
aF1.0888256759241892
aF-1.2314654961862705
aF-1.9290362159084207
aF-4.2652286959863464
aa(lp21
F-17.378587613539338
aF-1.4922491060196486
aF-7.1188507049607628
aF-10.214730164129643
aF-26.184482746875229
aF6.8803503137044704
aF-27.34422428941955
aF-40.036747461902543
aF-8.9569098083604111
aF2.5492395851573435
aF2.9134456604635592
aF2.3472312014179404
aF1.5768606809035657
aF11.708009518375404
aF5.7503926021809111
aa(lp22
F-3.3952301884401392
aF6.1479572106953908
aF-5.4216179085286962
aF0.91075000235752746
aF5.8813643036002476
aF4.0492878330022322
aF-17.91398056260196
aF-15.26146065557735
aF-6.6682733597519466
aF8.6508673965204999
aF-7.1646434559482444
aF4.3247867250662058
aF14.127280110575079
aF21.252167542189735
aF-0.96300676163609022
aa(lp23
F2.2906948047190201
aF-8.1458261371820218
aF0.28280166457731293
aF-17.634990749531408
aF0.6607684722099203
aF8.0940883742746408
aF20.085356034811806
aF21.911173661182204
aF-1.7491349780390339
aF10.955870060006719
aF-19.465245621640985
aF0.39356014217766105
aF-14.629361408205558
aF1.6681299108841769
aF4.5159763687740613
aa(lp24
F-11.532522549396177
aF1.6532114624926038
aF18.474782504313676
aF-2.1497792165579526
aF22.694376676668536
aF6.1559459387484665
aF7.3034181793435637
aF16.700350245286611
aF-7.1270720670458001
aF12.282251537195675
aF-13.247197270357727
aF-24.588632944919308
aF-2.2070971507334236
aF-1.3254900125680511
aF17.683222367222839
aa(lp25
F0.087515062087136691
aF-1.0487164159653015
aF27.665440142434687
aF-1.3291713207018363
aF7.7781475056366345
aF0.26285415800466405
aF-10.67784975330404
aF13.73744830072696
aF-3.7334383869875092
aF-0.37221686749778965
aF-15.010887100218518
aF-5.5217742946742581
aF0.87509348608109272
aF-1.5708530322152432
aF-2.9648631078552534
aa(lp26
F1.647214131658669
aF-0.20442651110121124
aF-0.5797017887123862
aF7.8972142781810133
aF-1.4712531030877596
aF0.18936389672847911
aF-15.522266761052514
aF-14.075784551352696
aF-2.4740832338237526
aF-0.13791719984203182
aF-5.0196843788112648
aF4.9749716059568527
aF15.894039470751748
aF-0.16705484251920555
aF-3.8924870590039045
aa(lp27
F-2.8345797939554287
aF-0.76253185646914634
aF-16.390724424367722
aF-11.390452294799209
aF-20.268104872900075
aF2.3651890570924712
aF2.1363246513909377
aF-3.5545085017200395
aF0.77405213353540703
aF1.8446239181125184
aF20.434354472499994
aF3.0353478605011133
aF-2.1221692487310428
aF-0.53637025192847676
aF8.192468358147643
aa(lp28
F-1.0986579510903038
aF10.202463309409342
aF2.331430666346733
aF-7.2937560337769147
aF-5.5229395925614284
aF-0.81811388346721492
aF20.015998422402998
aF0.1786671447315224
aF0.80708241115908574
aF0.81398610701701923
aF12.585918954507324
aF0.22932033714190905
aF-4.4807759969494825
aF1.472672748626102
aF6.3733566625229692
aaa(lp29
(lp30
F5.1311989988795084
aF-4.6995177227765081
aF-3.208995855366072
aF5.0280976669965654
aF-5.4449733429490612
aF7.2988652727938579
aF4.0347231959630516
aF-1.7805846040856679
aF0.36683687181334007
aF-0.56857039766220108
aa(lp31
F-4.9830373674969719
aF4.846012738176448
aF-2.8558691485057888
aF-5.1871147986255748
aF1.7509138681224616
aF-8.506465941111454
aF2.0415435057739493
aF1.5219529533336564
aF-4.8800674953144627
aF0.1312382227121478
aa(lp32
F7.9538725427361845
aF-1.1383678133684687
aF2.7287797303111119
aF-0.19163364876210395
aF-5.8816878399588823
aF-1.0402430071275806
aF-1.4017114945240747
aF1.380199203298659
aF-2.8159447779638662
aF-6.8416882231463649
aa(lp33
F-2.9262431152908923
aF-9.7271536098912499
aF-3.0534458150707042
aF-4.998296987521508
aF-1.825847797464303
aF-1.2434940142118387
aF-4.7914742994564907
aF0.43519285848975636
aF1.5911662090635872
aF0.62068348514512417
aa(lp34
F5.8349410787612284
aF2.0381173457125343
aF4.3781367863429157
aF5.1177671151835105
aF-1.5049772094058507
aF-2.5520894519074075
aF-4.7275010082369615
aF2.9839064233769661
aF-4.6529939450727573
aF-5.5989915025073245
aa(lp35
F-2.3540087020883242
aF6.9054976371219023
aF1.0299838425985099
aF-2.2535691967718479
aF3.8468331672035379
aF-3.5699707605930699
aF-0.46071293553210563
aF2.5191409448550606
aF-3.6553977867819643
aF5.0506758552041635
aa(lp36
F-2.924442285386375
aF2.7038650664182442
aF-3.7418681788292925
aF3.9660522507191374
aF-2.0410831812539421
aF-7.7492408251673552
aF6.6790538735987655
aF4.2105886621349011
aF-2.3331535898540201
aF-2.0016730783728933
aa(lp37
F2.0930698028776318
aF-0.30189298951527849
aF1.2165573972358024
aF3.8072340633106712
aF-6.2090507288006753
aF-2.5595254996997414
aF1.6527549327943176
aF2.8080622543409248
aF-2.0057443193452587
aF-6.9519035097436204
aa(lp38
F-3.9278040919921624
aF-3.4467710355430299
aF-5.854608925461716
aF0.13533610730499318
aF-8.3814701757593593
aF-0.75456910315127512
aF2.3999387177872422
aF0.7961534758051545
aF-5.4379733149348661
aF-1.3304303986507702
aa(lp39
F-3.1331773958892284
aF2.9234024222235808
aF-3.5635766663312216
aF-5.2499498587936939
aF5.0017399160251301
aF-6.5103602349791894
aF-1.4157371112536863
aF0.46457946027089769
aF-1.395850116550815
aF0.54765018252653563
aa(lp40
F-6.8179062292886883
aF2.5359933941491293
aF-5.788599731781126
aF-1.725574103191903
aF1.7468486157707412
aF-1.5702686676750728
aF2.637462592662756
aF0.93744243844366537
aF5.1780596047819216
aF6.2012145978760618
aa(lp41
F-4.7401734400981148
aF-3.6537211994489249
aF-4.9410006549565662
aF-6.2061241385783816
aF-3.0925633836208721
aF6.1736955020894797
aF7.9888326389375832
aF-1.0361017837652318
aF0.62238205468641428
aF7.532093092833672
aa(lp42
F-1.4038110087384499
aF-8.2184733845948372
aF1.7110460295512613
aF-2.9010721642888888
aF-0.29478589940655975
aF2.3055725865462389
aF-2.0835830775469186
aF0.78124355669183376
aF17.204010294767379
aF0.0047901024007233131
aa(lp43
F2.0823421449795254
aF3.2287452299759729
aF6.8852568453596446
aF-2.0564395753252751
aF9.3782127038915384
aF-7.3901568626150187
aF-7.8292970054893996
aF1.7661795511393845
aF5.6001166482072726
aF1.6665832517850843
aa(lp44
F-2.0570079775040031
aF6.4443426823211798
aF-2.4001517438391944
aF-5.6482372262351666
aF1.3622830435849567
aF-6.6380880657179704
aF2.3041942028569222
aF1.3051241670933962
aF-6.1188038205873783
aF0.96229123922162241
aaa(lp45
(lp46
F-2.7272733792172077
aF1.0483217495875392
aF0.181187814763446
aF-1.0300474150689765
aF-1.5054508399711679
aa(lp47
F1.3884608995855821
aF1.0735255098292964
aF0.31104718924608471
aF-2.5111749463390138
aF-0.80098430574586843
aa(lp48
F-1.1954666774615723
aF1.8805920299383225
aF-2.2934070479697746
aF-2.2488369265742918
aF-0.73746970718238114
aa(lp49
F-1.9542328253010499
aF-0.86918972346094725
aF2.4593442595233803
aF-2.6960856476842472
aF-1.6309302721157373
aa(lp50
F1.6973320705116124
aF1.855283797092059
aF-2.687209317372699
aF-1.8907827088984377
aF-1.1631701945997208
aa(lp51
F-3.5654983984822777
aF-2.6407530125017589
aF-0.54105944416355045
aF1.0462759646733557
aF-1.0902777160866932
aa(lp52
F1.6023513902582449
aF-3.2509876108954749
aF0.70397852260684024
aF0.3143519402115349
aF-1.3844839733133383
aa(lp53
F-3.8218889373676501
aF-2.958344878309032
aF-0.28380527398426525
aF-0.5274023028555086
aF-3.2715221971937978
aa(lp54
F-3.1386961686610841
aF0.35599018622500955
aF-2.4178390550398543
aF1.9825648640699274
aF-1.6581008122362249
aa(lp55
F1.2077293110345331
aF-0.5473155374826415
aF-2.7868235632662191
aF0.86646995715399111
aF-0.83728991464789093
aaaa.