(lp1
(lp2
(lp3
I1
aI0
aI0
aI1
aI0
aI1
aI0
aI0
aI0
aI0
aI0
aI0
aI0
aI0
aI0
aI0
aI0
aI0
aI0
aI0
aa(lp4
F0.93174127995219014
aF0.79237357872195446
aF0.18285370938035775
aF0.35443637148950091
aF0.45237896751927953
aF0.92527316376732194
aF0.76399234530547921
aF0.62944401150698348
aF0.10630966144466204
aF0.2388226532644509
aF0.72649674637949302
aF0.036958786743690027
aF0.47323214974568101
aF0.88656116977202981
aF0.13645904282968718
aa(lp5
F0.37715556227904146
aF0.91931682908685664
aF0.89196986466664785
aF0.52312403842836463
aF0.96086833155004336
aF0.27302829122947098
aF0.45386514773125136
aF0.93605964712208689
aF0.037708748519862355
aF0.84280446507917706
aa(lp6
F0.39766058134635462
aF0.25425873958701306
aF0.23655170488283908
aF0.13204955720593814
aF0.023971051653539945
aaa(lp7
(lp8
(lp9
F1.346793932567792
aF0.76632506825167346
aF-1.1246701301970532
aF-0.44660171886045114
aF-0.4026509070346041
aF0.75040024897218927
aF1.0178149093043691
aF0.072198292728507335
aF-1.4017607086317743
aF-0.81476768011395462
aF1.1403706650770107
aF-2.2736988113305161
aF-0.27749911081477585
aF1.7336758801538619
aF-0.95463675641263568
aa(lp10
F0.40873279269623153
aF0.73260429156994489
aF-0.67943799317261544
aF-0.98601698170473961
aF0.50909556560243341
aF0.63168222960291109
aF1.2102534152651885
aF0.78899984039601945
aF-1.168597934659013
aF-0.11561130747019102
aF-0.12236740052112574
aF-0.97283427313637094
aF-0.88056368639262816
aF0.64202526623804101
aF-1.3704361267072684
aa(lp11
F0.18792786384635393
aF0.83494967010090893
aF-1.0726023595817009
aF-1.6424823305475333
aF2.6797681618374893
aF0.49968481904821194
aF0.79032089087232782
aF1.4243840238200336
aF-2.0439173345658919
aF1.1602548281777634
aF-0.77804245101745617
aF0.07906286354862381
aF0.085753147848996708
aF-0.72981319769340847
aF-2.1259726354847066
aa(lp12
F0.31776109294502208
aF1.2614515937304542
aF-1.2769045446654519
aF-1.3839541593575695
aF1.1738414981055862
aF0.2537153930778514
aF0.86111946339353562
aF0.81153333069454703
aF-1.4561585560625421
aF-0.47928846254994861
aF-0.042111191770984026
aF-1.5257030668276732
aF0.12910608311147787
aF0.46602635980280316
aF-0.86786389366376637
aa(lp13
F-1.7648221845768426
aF0.98972271892087449
aF1.6391507158447745
aF1.779632103122496
aF-2.4260152607359604
aF-0.23876183970305187
aF0.77173385363109348
aF-0.13605887444962247
aF1.9897627948545866
aF-1.8150337806834003
aF1.5538843900191062
aF0.80266781621411665
aF2.0137736634363796
aF1.3866554794560704
aF2.8563475722982838
aa(lp14
F0.034967423537486497
aF-1.2055886312304402
aF0.71042833683986872
aF0.89928201003916297
aF-0.98844077548876264
aF0.20241546196989119
aF-1.4464043749598032
aF-1.0922606952153149
aF0.5946046831688202
aF-0.18993695887717879
aF-0.52725264055102117
aF0.37550653931075567
aF0.28838264055857249
aF-0.74757085579237781
aF0.52611267253276706
aa(lp15
F0.22017376530848543
aF-3.0016019079196852
aF1.3158285953211142
aF1.439278081104342
aF-0.65692765442890355
aF-0.13939764939075855
aF-2.2838424452265338
aF-1.9239316835231839
aF0.96937912763474099
aF1.5743398512976083
aF-1.2914068697709415
aF1.9671582293160088
aF-1.494864212401761
aF-2.5050412618088371
aF-0.55298658841877457
aa(lp16
F-1.2036405417765452
aF0.14667451228109751
aF0.7096357569825944
aF0.66880983400591754
aF-1.0767929363841147
aF-0.3506515062927627
aF-0.75660294923972859
aF-0.43669231723691221
aF0.89098631644028736
aF0.064110321863618647
aF-0.25688734037647937
aF0.79799093371064034
aF0.27284493300816631
aF-0.95900813326537282
aF1.0402421253222573
aa(lp17
F0.11848156589575116
aF-0.36457909318687093
aF0.15081324553061834
aF-0.39317711794027987
aF-0.10026643729744564
aF-0.3116869229806844
aF-0.10089299096411071
aF0.22962589730652311
aF0.06336061642415361
aF-0.21011621612464362
aF-0.66174342035145217
aF-0.11860469726505457
aF0.37397327389282625
aF-0.51533827947766175
aF-0.35404776195893822
aa(lp18
F-0.35029434567738632
aF-0.1999749547854652
aF-0.31866738819284818
aF-0.52244764135483812
aF0.41135427352367138
aF-0.17589947184150306
aF0.29161359255721692
aF0.27495234125212353
aF0.4388648690091404
aF0.12338801464777452
aF0.051754851272473007
aF0.51976939533768807
aF-0.45420925506778198
aF-0.19944174275287696
aF0.38415362169030898
aa(lp19
F-0.2704175826083699
aF0.54289557190048388
aF0.48213578484141179
aF0.54197159176951093
aF-0.57595062728041402
aF-0.081179242169358054
aF0.38755077014049694
aF-0.47241851259950562
aF-0.0015758142535769182
aF-0.39001033655517736
aF0.27222329986792426
aF-0.32527635535345328
aF0.34070142047035512
aF0.2034239301590956
aF0.087084752158895204
aa(lp20
F0.32959120998539332
aF0.3394529814811677
aF0.16643398240612378
aF0.63253579084188472
aF0.023815001805377156
aF0.018767781507678393
aF-0.40221483826757626
aF-0.65911771570584177
aF0.14161511649651509
aF-0.54699200702335971
aF-0.13845394833179114
aF0.34674265956388373
aF0.17391932032579407
aF-0.051376423041647835
aF0.61292592855526185
aa(lp21
F0.73644185879793
aF-0.90411190368431094
aF-0.11354443510535547
aF-0.60877069869980838
aF1.1695930747183523
aF-0.29280912605331139
aF-0.89058072761597029
aF0.35431020329124008
aF-0.51924481741926198
aF1.6282870933076539
aF-0.96758729542028699
aF0.660286588215241
aF-0.73283609835188102
aF-0.89254881657891372
aF-0.65852111961887605
aa(lp22
F-0.075628664368129983
aF0.10160587664817697
aF0.35464540019613056
aF-0.38866961734316063
aF0.59998667817095319
aF-0.051322026184456415
aF0.2370660871624316
aF-0.46619528975065994
aF0.11995732730742427
aF0.40952870879913811
aF0.17812191168787478
aF0.46769996255516677
aF-0.50722699640304436
aF0.18588428335960261
aF0.086206978787364025
aa(lp23
F-0.82395148175393274
aF0.65305899981521964
aF0.15521797998079118
aF0.16937186221713182
aF-0.16609782358648473
aF-0.057607380307437409
aF0.42403438477013317
aF0.59878653474564802
aF-0.20780497574373316
aF-0.77712664196028813
aF0.54215106912107236
aF-0.3941654849808035
aF0.78489439311803455
aF0.71306012884521874
aF0.60562705902656411
aa(lp24
F0.087559998647469661
aF3.1912667049330094e-05
aF-0.079716018963119514
aF-0.26538824690114554
aF0.42757694765821508
aF-0.22243528385736319
aF0.29318013035704038
aF0.22754317450964651
aF-0.55468629418271787
aF-0.55589478420911265
aF-0.2763657643626366
aF0.067326602503277294
aF0.43676931708038014
aF-0.02971193363977509
aF-0.56327296853936226
aa(lp25
F0.16507507290074855
aF0.2199030866024228
aF0.47534749903313789
aF0.07446594299513061
aF-0.13621503980332425
aF0.24429446789063286
aF0.29648401557981718
aF0.4013799500534016
aF0.16413901917428722
aF-0.17029299214709753
aF-0.15889403849584149
aF-0.28109890387686387
aF-0.40138379467843233
aF-0.43179313591762825
aF-0.11498657545694917
aa(lp26
F-0.18961752611081531
aF-0.023926453736573875
aF-0.23862440912879973
aF0.21239247489624802
aF0.33653276584072328
aF0.26294944296826572
aF0.048180903664279934
aF0.23046268761953095
aF0.27710257271168154
aF0.038330627103363671
aF-0.068766670379864697
aF0.1024174678901611
aF-0.23188939308321702
aF-0.3357676037419316
aF0.32921075413781403
aa(lp27
F-0.042745161018918613
aF0.030689969240517059
aF-0.15159290104739048
aF-0.29439276700789296
aF-0.43980916131750059
aF-0.034281093144736333
aF0.094160448404157854
aF-0.14559890392162517
aF0.40904434198134648
aF0.36998571390058327
aF0.051676567279959243
aF0.016460336853995845
aF0.044482381332922559
aF0.082708634313339607
aF0.42939653036744657
aa(lp28
F-0.39755666798849804
aF-0.15856416265756579
aF0.092351825726145517
aF0.011251316638356282
aF-0.49676047772087772
aF0.37655900470513876
aF0.073622883880802112
aF0.31890120338122835
aF0.33248141560815975
aF-0.41708048919035356
aF-0.29318439441178928
aF0.1890154507095205
aF-0.13214868829222057
aF0.50737700489018134
aF-0.22432886074341679
aaa(lp29
(lp30
F0.98249943940854756
aF0.20782239924319651
aF0.34836894132690793
aF-0.35123351820734877
aF0.1059697907378299
aF-0.096401984747990249
aF-0.5139397168631078
aF0.01314733803585366
aF-0.10850562132241573
aF0.537620902340607
aa(lp31
F-0.93890462101093564
aF0.13596568324753597
aF0.13595607639066043
aF0.031744095952263587
aF0.62783894502756832
aF-0.92143105674810255
aF0.25251127711815591
aF-0.070765308802135177
aF-1.1703628759375251
aF0.56997436789246925
aa(lp32
F-0.0022300951392996639
aF-0.58097795016416154
aF0.50540031932294116
aF0.60715568675640952
aF-0.62010134841220466
aF0.16826286243027955
aF0.3838829790435932
aF0.52596887383323787
aF0.51066169603368372
aF-0.14543393336034985
aa(lp33
F0.28412831426723595
aF-0.1602388249855963
aF0.5499619518630724
aF-0.13786522343411423
aF-0.49331022851703943
aF-0.20751896576416637
aF0.78743185078480304
aF0.57624849777565357
aF0.64748984733517945
aF-0.8949138284837268
aa(lp34
F0.23172294037720834
aF0.18316350297930045
aF-0.69738660049522305
aF-0.43696593828199465
aF0.57328791662788703
aF0.80323234732119309
aF-0.42759660774669583
aF-0.19716609828290993
aF-0.69100510640799417
aF1.0970216612367423
aa(lp35
F-0.062684975081442329
aF0.39264137633040752
aF0.37489330899393059
aF-0.1599525230990495
aF-0.046154281095974255
aF0.45949676985594679
aF-0.38507638261859833
aF0.67039085076788718
aF-0.11639637470302153
aF0.12813333077647915
aa(lp36
F-0.94974403376532357
aF0.69277398582477256
aF0.18129108923197693
aF-0.34341647424977578
aF0.070417930696276401
aF-0.17671590687599548
aF-0.53457484415785106
aF0.29269863574987348
aF-0.87667406116338698
aF0.40112789492845929
aa(lp37
F0.056522883671185346
aF0.17861908613487332
aF-0.2445093657363458
aF0.15579925977433431
aF0.56606958423434528
aF0.14912594444339827
aF0.12471297720126905
aF0.40202664163678287
aF-1.0834290130428144
aF0.45332981819602153
aa(lp38
F-0.27506811749760723
aF-0.30900814564114809
aF0.57791011339753673
aF0.76005848943978682
aF-0.3810857811809199
aF0.13451998130147008
aF0.027417457166410086
aF-0.27697842351355434
aF0.93001873703862903
aF-0.97522894670015647
aa(lp39
F0.52799073749915837
aF-0.11830066661025554
aF-0.50684676227684011
aF-0.0007596065139509659
aF-0.2257228600174436
aF1.1055520002251971
aF-0.10633233494459271
aF-0.39853063045037074
aF0.41273512760592007
aF0.62404787819063867
aa(lp40
F-0.176144994257559
aF0.21156806817750581
aF0.31987588811256945
aF-0.065850444670578809
aF0.57348126914451147
aF-0.90557669265640262
aF-0.25986025183534139
aF0.65378267037591453
aF-0.16045613934647882
aF-0.62838612874308353
aa(lp41
F0.19346730297235021
aF-0.6718689609324171
aF-0.46118215443994115
aF0.25293583826929261
aF-0.63031272214041356
aF0.69888110308527085
aF0.76110049417144698
aF-0.29757864523431904
aF0.45686622732002319
aF-0.42137363080279494
aa(lp42
F-0.80933576621894265
aF0.099899938391469836
aF0.07609348118916559
aF0.58136440160546843
aF-0.065498158942648821
aF-0.35442811740870311
aF0.32990830930457121
aF0.63453705405661842
aF-0.16448739839657345
aF-0.015526216372895751
aa(lp43
F-0.72660536260360453
aF0.089230787429891448
aF0.3905508125730488
aF-0.41397679338049626
aF0.73745903408381042
aF-1.2151558836798264
aF-0.57363830742175104
aF0.12744270578599659
aF-0.59377548032896765
aF-0.37130918546462083
aa(lp44
F-0.33583327777298727
aF-0.20630780146516106
aF0.47860542628564751
aF0.79463575944605047
aF-0.22923490326194976
aF-0.87954191340340793
aF0.8561734359800891
aF-0.032778925554819503
aF0.39261077996024252
aF-0.93918486243321464
aaa(lp45
(lp46
F0.087426424612547446
aF0.048431146978953274
aF-0.58687494440739152
aF0.77903185123964613
aF-0.029899849375693337
aa(lp47
F0.18290079993717889
aF-0.10095745612216275
aF-0.09078828789187407
aF-0.48587594246174004
aF-0.35513268793088321
aa(lp48
F-0.15698832722282929
aF-0.84471138120803824
aF0.15047565833499446
aF-0.32540516036897854
aF-0.74212572282595579
aa(lp49
F-0.54436553753630823
aF-0.42912108651287884
aF0.37480908421873083
aF-0.1213097447715539
aF-0.62875017934881294
aa(lp50
F0.24456705894501912
aF0.087904207464423734
aF-0.13920575492337467
aF-0.59676308213069118
aF-0.7823707748269868
aa(lp51
F-0.53589693927118698
aF0.27001870464548638
aF-0.74199422216331135
aF0.45399884547285402
aF-0.27374072694530266
aa(lp52
F-0.8146900548967192
aF-0.53749250609402655
aF0.24876598844983949
aF-0.17745295163094718
aF-0.58340685775675916
aa(lp53
F-0.037966184074539534
aF-0.28225112300825556
aF0.12569684464886571
aF-0.38676660008904989
aF-0.65122480909724401
aa(lp54
F-0.45980017675061191
aF-0.75997654401684556
aF0.14997146750027665
aF0.73274735582063744
aF0.076360363804948178
aa(lp55
F0.070663764867484824
aF0.35701266648904162
aF-0.90214044495190437
aF-0.51423814356049635
aF-0.12208073486010962
aaaa(lp56
(lp57
F0.19937200321134421
aF-0.17410630299536725
aF-0.20050996622099665
aF0.036110754896293958
aF-0.6080639602726321
aF0.45819424401489223
aF0.23331335236562922
aF-0.016609525036783167
aF-0.057825270060360388
aF-0.36236497991319055
aF0.20726150907519267
aF-0.14483246994844412
aF-0.56090832351573172
aF0.21736138957371506
aF-0.72072798092985402
aa(lp58
F0.43432185149216074
aF0.18701523947739485
aF0.0088909500081028967
aF0.11703969381109584
aF0.4606557322938265
aF0.12952741346109845
aF0.38618714980216734
aF-0.20026440731553874
aF-0.38246630971343215
aF-0.1417447341210967
aa(lp59
F-0.1547889983274312
aF-0.25655243284060092
aF-0.53779862257228883
aF-0.25678039611207948
aF-0.59938456352037695
aaa.