(lp1
(lp2
(lp3
I0
aI0
aI0
aI0
aI0
aI1
aI1
aI0
aI0
aI0
aI0
aI0
aI0
aI0
aI0
aI0
aI0
aI0
aI0
aI0
aa(lp4
F0.0019551012822674788
aF1.8255271587089292e-05
aF3.5953919554597094e-09
aF0.98878901273582931
aF0.98503229616780252
aF0.017837755594547547
aF2.9059719125654367e-05
aF0.96548219298418747
aF0.99999698989577834
aF0.99997240842828405
aF0.99999980978674996
aF3.871187857257873e-07
aF2.3909897275926382e-06
aF0.9991043126635214
aF0.99999968636053005
aa(lp5
F0.08649262125883804
aF0.99998679304732951
aF0.028722311736827134
aF0.99999133846328059
aF0.99899359610787486
aF4.1269621808398405e-05
aF0.99999992441279761
aF0.99719768867284853
aF0.0090317111655959497
aF0.99439942899820788
aa(lp6
F0.011539324146162868
aF0.025907388187779341
aF0.014677339757821831
aF0.94082618194377932
aF0.0066987402607702846
aaa(lp7
(lp8
(lp9
F13.356544125799161
aF-0.45711209964654842
aF8.6480787727140296
aF8.0933460232937442
aF4.9636712652605413
aF-12.751046666890877
aF15.715176796470027
aF-6.6665391388124435
aF13.488173936735627
aF6.1768474884427711
aF-11.402475009571612
aF10.425109371001902
aF-8.404039942257878
aF-13.988539865700458
aF-17.609369263184011
aa(lp10
F1.9546241879398214
aF-3.3820343694546851
aF8.5750177599989286
aF-0.032755011087916938
aF1.0488793477979494
aF-12.50706612486646
aF0.04972373672630296
aF-1.2763438572651422
aF-0.17215500168430189
aF-0.56034585397611025
aF-11.948070821542645
aF0.20098390202633748
aF-0.36630741698867325
aF-4.2343326511545758
aF-12.582381713266175
aa(lp11
F-11.339686173440642
aF20.128435809778207
aF2.2949114014556939
aF5.2367817880388259
aF-12.832459852639042
aF13.649707020570471
aF6.4357500597806778
aF3.1181444641676124
aF-9.0228985989592942
aF-15.33112893284606
aF-8.5350504434409622
aF-7.7180231983848957
aF18.173649952416135
aF-12.92381814125644
aF13.765903841590246
aa(lp12
F-11.576764680282254
aF5.1223699816577026
aF7.4863283670438063
aF-0.1833975348585018
aF-1.2402423168793184
aF2.1624856498481515
aF-0.37301628939302106
aF0.068426853363472498
aF-9.7135433015442452
aF-9.766884368892244
aF-2.6646832672996474
aF-0.81001283063367457
aF10.543108750022624
aF-2.4482143976393678
aF-0.25621297227884288
aa(lp13
F1.2841774397757588
aF-10.721803371127162
aF-0.56258840987631342
aF-23.291621760820547
aF-17.083695178484948
aF1.2493839804804026
aF6.1434140222571845
aF-2.8880514802756743
aF-7.6151230870553528
aF13.634027434720265
aF17.295965290080265
aF10.732009662499403
aF-1.1818410198739009
aF11.157855937340065
aF5.8838258353491435
aa(lp14
F1.8797877528675717
aF-4.2849247186198207
aF0.075492496436207382
aF-15.168259063889169
aF-3.6512573332468787
aF0.64708006556271325
aF-0.88070162311715106
aF-2.6435045411016569
aF-0.92397743549489875
aF-0.030218120452885799
aF2.7802350635092949
aF1.2526327373724544
aF-0.22030825130119824
aF13.336001308767461
aF-0.9884009135308256
aa(lp15
F-11.808838914977553
aF-11.363979159571223
aF-15.212112872738468
aF8.1989661401157186
aF8.9626244196003828
aF-10.96307502107936
aF-17.614377226776103
aF3.4299662611181581
aF8.9572447471654257
aF3.2378550444576257
aF9.0581450887909423
aF-20.295552948879607
aF-7.3486725983406913
aF-0.85088179605895897
aF6.7278868993431207
aa(lp16
F-1.6170885966818251
aF-8.1695187857761926
aF-1.2098987732210513
aF-0.79190830079574792
aF10.662569494394887
aF-2.2983808632748657
aF-12.158598925618714
aF-3.4113957765426339
aF0.80588628555676489
aF0.40821962641060883
aF2.0622578521326518
aF-11.175503559652849
aF0.1125844118859005
aF0.061267463230052652
aF-0.31839927521975858
aa(lp17
F-9.1638036461252934
aF-0.13197161582255204
aF-1.8839373067851499
aF-3.4821040154044454
aF-4.0160256040154572
aF9.3128963626170709
aF-2.0544979849022296
aF3.1446457219964397
aF0.36627491320867134
aF-0.86588257882135022
aF10.224889935905686
aF-4.3773384566219633
aF6.3271582164082281
aF5.2955803562780979
aF13.649101081337619
aa(lp18
F-9.1988259014789246
aF0.37597725514925562
aF-1.8135402176550004
aF-2.3832389684895752
aF-3.4905364099593763
aF8.696863231315616
aF-1.3976522591016818
aF2.2867916361124436
aF-0.43550934864486385
aF-2.3196611355298082
aF8.6129889406008662
aF-6.2128104809097016
aF5.7059816131131784
aF6.2231210634693115
aF13.878578890122281
aa(lp19
F8.4223288051808787
aF-4.1809612938203973
aF-3.3644551118360098
aF-1.7382972219949113
aF1.1413214061387338
aF-8.1008793982493081
aF-1.292197507116549
aF-1.3331019687688068
aF9.9833511563653836
aF12.163536953653395
aF1.9496364603322902
aF2.9444117714836744
aF-8.2104408612595368
aF1.4051721408124316
aF-0.37191755670223542
aa(lp20
F8.0545016370955391
aF-5.6444363937467203
aF-2.8358477765164789
aF-1.9861970903924582
aF2.2258590641196379
aF-8.6249774146348752
aF-0.99660715052516136
aF-1.0296515121299428
aF9.9912779872343318
aF12.565501722153336
aF3.2858427602318478
aF2.3713900430632311
aF-6.7931277105284034
aF4.580831176541146
aF-0.46770360677115236
aa(lp21
F-6.5720544126501279
aF3.8053414480948455
aF-0.78522837807213608
aF18.80883103453106
aF0.77603594717665714
aF-5.5607060576478773
aF-1.8406457717603608
aF3.6470010023510682
aF2.4694664789538074
aF0.15865672625746011
aF-1.8114702421032283
aF-6.2283393274563768
aF0.21955878767070533
aF-8.9547248467274976
aF-1.2563788010251571
aa(lp22
F-5.0771986089564107
aF3.3948768258667434
aF-0.098634015295534519
aF14.807997574409967
aF0.91842205524580778
aF-4.6580063394676152
aF-1.4063958711166027
aF1.7685895682867265
aF2.646949091734875
aF-1.6676107845652455
aF-3.6631468538361198
aF-6.3899123885594005
aF-0.34754520255994387
aF-8.7112960301651778
aF-1.6316768756910862
aa(lp23
F1.3678637114450971
aF2.7934510339397649
aF3.0765573584850512
aF-5.7411246834571674
aF-11.237582910712597
aF2.9153616703316398
aF15.045860286600927
aF-3.0084065330048988
aF-5.3405021895196469
aF-0.93809618955875351
aF-3.4276426008859926
aF7.9576781081810122
aF3.1543087321448953
aF0.14820659863509231
aF-2.4290089226716112
aa(lp24
F0.67315160870644131
aF3.6681532295082673
aF3.1322893689188089
aF-6.3060705157664056
aF-10.408948374939872
aF4.2550483791563662
aF14.159604614486568
aF-1.7538697969037029
aF-5.5392069816503966
aF-1.9388608860903287
aF-5.7236306797540983
aF7.1999875163542901
aF0.84722169574584383
aF-1.3112526033016378
aF-3.6112969281119542
aa(lp25
F0.073572766953186736
aF2.2426312763304392
aF1.5178979113127933
aF-6.2052022329317751
aF-11.04301383310265
aF10.169500208313707
aF1.2430064560729182
aF-0.42185012249798365
aF-9.1309833396852191
aF-2.1482602554057011
aF0.86337978668861881
aF7.6947230874733252
aF5.9710864947502804
aF1.3700467834197141
aF11.077806959883178
aa(lp26
F-9.3076724346911064
aF2.0730335250117782
aF-3.1860903168090653
aF11.895068025996054
aF-2.02506273893307
aF0.47687693133533288
aF-3.856631325490977
aF2.7926313143046309
aF0.046280504935160005
aF-1.8936138112443803
aF1.4732225509193944
aF-7.9048349449148096
aF1.0115327223197377
aF-3.1779393722033977
aF12.48878637633001
aa(lp27
F7.2345714045766405
aF-0.73535428579030049
aF-2.0867446294482761
aF8.7705855189568691
aF8.8652530251865791
aF-8.1522367411007366
aF-2.8367266454042515
aF-0.092898439870550145
aF9.5261704717084204
aF0.64411018857527813
aF-0.34446710041018541
aF0.47007764010033409
aF-7.928362861118381
aF-4.4599263323587817
aF-1.8605746204335727
aa(lp28
F10.299121794315477
aF-2.9886292115826198
aF2.3167941646039214
aF-6.2093649588135564
aF1.9680741705166802
aF-0.74283042753955841
aF7.9213293227287398
aF-2.7852647380659064
aF-0.48480779129294921
aF6.7023095817925418
aF-0.18378153238060205
aF10.383021903740815
aF-5.7714674877478833
aF2.0898248775566954
aF-4.6760431944304104
aaa(lp29
(lp30
F-1.1922374429455664
aF-2.8259602776952253
aF1.002424340529924
aF0.19892650071496901
aF1.0153465174422669
aF-1.0622106006552932
aF0.7709602866921933
aF2.7788078049743823
aF4.6088386421099434
aF1.7303678369329052
aa(lp31
F0.60899506110651025
aF1.8659411662401599
aF1.1447831764900993
aF-1.3497098071228797
aF0.7135040146019016
aF3.6522543243773553
aF-1.5332388016891427
aF0.32831571142450067
aF-0.6281557987284847
aF0.48685282927896212
aa(lp32
F-0.90835516970697538
aF-0.70079089042862597
aF1.7376015847091075
aF-0.95206765948186989
aF0.03356275502259471
aF1.9855448164673051
aF-2.1492282493692221
aF1.5490736263811109
aF1.4290431119593792
aF-0.79875896652057998
aa(lp33
F-6.2730495389493495
aF5.116019338319501
aF-4.9620924942416522
aF4.1744032765129253
aF2.0464069088145664
aF3.8758483415802125
aF-3.6099105377951028
aF1.7371988230327282
aF-6.0522957120936933
aF1.4646085105908722
aa(lp34
F-1.8192035554124986
aF2.6417467036273155
aF-2.5324678880887146
aF2.465262853256903
aF-0.7054267443715414
aF1.1538712892893954
aF2.3288740807265982
aF3.9848810694252168
aF-1.2207603777300002
aF-1.119465252246421
aa(lp35
F2.3013438795364149
aF2.0302973734190597
aF3.1259237489214979
aF-2.0879996939956058
aF1.7195789333635951
aF0.50239447213756117
aF0.43779947528079616
aF-3.211319364756744
aF-1.6058985495733384
aF1.7208613500543739
aa(lp36
F-1.4412781960825656
aF-3.9388776519401474
aF0.79430970967488257
aF-5.0098514898601962
aF1.5581358594850632
aF4.1478790402952885
aF-4.1200635689154907
aF-2.9273423049669853
aF4.0612871006242406
aF2.2911654088612607
aa(lp37
F0.40267239140756589
aF0.91522539510404022
aF1.0217639780888514
aF0.17039507047808622
aF1.2376390889100668
aF-0.22251546669756925
aF0.42276618081256678
aF0.90858806026943628
aF-0.037130605393725064
aF0.38855101959604987
aa(lp38
F-3.7844458182442766
aF-1.0532574818724363
aF-2.0583869330913585
aF2.380922841753558
aF0.59627486943565433
aF-1.4282735635819837
aF1.6114656024125875
aF3.3732110546468199
aF2.2572722604068987
aF1.17007730180852
aa(lp39
F-1.7714740392052861
aF-2.4965490539177968
aF-0.2172598894127335
aF1.950042552826839
aF1.1647647656557876
aF-3.5758795170726252
aF3.9253002555775041
aF0.99247242502317679
aF2.9465659677247631
aF1.1121846864336742
aa(lp40
F1.8188973971681863
aF1.6748584570125871
aF-0.1058651725433522
aF2.381162651764845
aF1.2158493506537102
aF-4.2836366544466218
aF3.9930846803899023
aF-2.3348967958683118
aF-0.47467092494888735
aF0.94311833210436802
aa(lp41
F-1.0811293093925483
aF-5.461068834460022
aF-0.10437906580144683
aF-3.6777513795400383
aF0.79760022283673571
aF-0.84730606918726603
aF-1.7483379688811724
aF-1.2963662472554811
aF1.8283367739529515
aF1.8316329063965597
aa(lp42
F3.9480346645382554
aF3.7547453618785664
aF4.3379495641508372
aF-2.7378871020928464
aF-0.79804755791026816
aF3.4434577507421822
aF0.385083380663515
aF-0.2994411438114879
aF0.72162162479988412
aF-1.4823448877204211
aa(lp43
F4.1806650846554065
aF-1.7801643316629407
aF2.6248607469469669
aF-2.7314941262207113
aF-1.6450273625782057
aF-4.6421489417609543
aF4.5646845349249494
aF-1.0532219322624847
aF0.84414644058155641
aF-1.2808866977640672
aa(lp44
F4.1980965720832462
aF3.677176249050421
aF0.92181924208667743
aF1.1442842433846883
aF1.8030320877245689
aF-3.3872522848926838
aF2.7663793642758172
aF-3.2437289109880894
aF-5.4278933929459177
aF1.9799108080626457
aaa(lp45
(lp46
F-2.0969104638642593
aF0.63309703387259542
aF2.0080681512293408
aF-0.085399347198830439
aF-0.88849402707843883
aa(lp47
F-2.2407492098487749
aF2.3717910504779804
aF-1.0788136795692609
aF1.2565261249845447
aF-0.7666178971757367
aa(lp48
F-1.2768946414904965
aF0.57536232788532049
aF-0.20014481067846529
aF-1.4121043880871198
aF-0.85654008667145343
aa(lp49
F-0.84699077716572435
aF-1.6148945204760254
aF-1.2650452721493655
aF1.9530509721894675
aF-0.50654710904852207
aa(lp50
F-0.51135645347168879
aF-0.87475512575144088
aF-0.34967518876688614
aF-1.1788087657934225
aF-1.0823826202455835
aa(lp51
F2.1144272817227643
aF2.4201091650617381
aF-2.7300558354241899
aF-1.313892176615449
aF-0.75366190119151988
aa(lp52
F-0.59175072544616347
aF-1.6504758095579348
aF1.2373652031315014
aF2.4650872067954541
aF-0.35690509490623412
aa(lp53
F1.3431663679746346
aF-1.123998727537588
aF-0.98829044021727186
aF0.99445893735585889
aF-0.49666539225350148
aa(lp54
F1.912563056104527
aF-2.1034235588312127
aF2.5465568427177216
aF-1.7055822178027462
aF-0.97114708652290871
aa(lp55
F-1.0868580917379504
aF0.87785906567257688
aF0.0050530276058159693
aF-0.97717104988409731
aF-0.91929479671606151
aaaa(lp56
(lp57
F3.666139559976727
aF3.73786680720979
aF-4.3442951420940235
aF10.44962733694649
aF-1.1230811778906529
aF5.307837887973835
aF7.0489457640580468
aF2.2580349177449786
aF3.7403463158528383
aF6.3056778230706172
aF3.3938193532990057
aF4.2781282668095182
aF-6.3745681651294737
aF-5.4683429914794015
aF8.2355354440769766
aa(lp58
F0.15593974456376672
aF1.6359174265580179
aF0.67785013281625373
aF-0.34553342653763736
aF0.20782110745152568
aF1.4567667669750317
aF-0.39641026522115719
aF1.5571333288307563
aF2.0777783798858334
aF-0.50100402818420586
aa(lp59
F-0.33524895940003308
aF-2.362038909127615
aF-2.0048382246652672
aF-1.7173170976105518
aF-0.77000670066121846
aaa.