(lp1
(lp2
(lp3
I0
aI1
aI0
aI1
aI0
aI1
aI0
aI1
aI0
aI0
aI0
aI0
aI0
aI0
aI0
aI0
aI0
aI0
aI0
aI0
aa(lp4
F0.062356562011437904
aF0.42732122105110887
aF0.99709149181566048
aF0.99750071838273657
aF0.017637702511000615
aF0.99781141413324204
aF0.02795474697631541
aF0.88509236245917144
aF0.023983821594705693
aF0.011995738596925435
aF0.026685269180458143
aF0.99559867443205707
aF0.98589029395283645
aF0.98880609785085005
aF0.0094312253979746165
aa(lp5
F0.99968105174369204
aF0.30327307613116655
aF0.022827064924370824
aF0.028043735186768805
aF0.99385243335020557
aF0.0067514362893153724
aF0.78086473828098979
aF0.11097646516457117
aF0.9324485073601616
aF0.093951635866909619
aa(lp6
F0.17446483869219701
aF0.18727368146982473
aF0.51845888704214049
aF0.096491400380209633
aF0.0097531265869250563
aaa(lp7
(lp8
(lp9
F7.6383411441789724
aF-8.043280833788673
aF2.1974246237569672
aF-0.39201143310415765
aF-4.6792688111056631
aF1.4827872275813265
aF8.6874474250667877
aF-3.7898907165247153
aF-3.6615513009060914
aF7.5618055734173319
aF9.5570536720847699
aF2.717353043208711
aF-7.5681822941103682
aF-7.8132596294846701
aF-10.043960893628183
aa(lp10
F0.6572773134734381
aF-4.6403381705069897
aF1.5485901610419048
aF0.075100800735960954
aF-5.228999751605766
aF2.7683810171352721
aF0.46268969905932289
aF2.3002019434094261
aF-1.549466464630713
aF0.39312413148475744
aF2.0345232055278921
aF3.9642487319093278
aF0.40499179078405845
aF-0.74582294976983476
aF-7.9826276546530561
aa(lp11
F6.4224277963504992
aF9.7208610025833888
aF1.0374033638113476
aF-0.57786446302474881
aF-4.265621985453552
aF1.5858399163936192
aF-7.9371383742088675
aF4.2170400345170602
aF-11.991779315332668
aF6.9302850491807
aF0.5568770652427143
aF2.8088532446584984
aF3.355693071851813
aF-8.3807962809671626
aF7.1785483231760665
aa(lp12
F-0.77648238538804781
aF3.5171530616286648
aF0.28508126904845066
aF0.76778513701499518
aF-1.2288579691803623
aF2.4657629963256382
aF-5.9042261528170759
aF1.4144702763254213
aF-7.362943226640529
aF-0.38720949093166884
aF0.53395669787014211
aF3.324199723542562
aF0.89664832021629182
aF-1.0408347009749126
aF0.17625375787225611
aa(lp13
F6.4024347638953945
aF8.6418719678284326
aF2.2104615115980244
aF1.1361675960043622
aF-5.47159331393157
aF-10.206608211633261
aF-6.1469403204456103
aF-6.4701982281655619
aF6.0526996446983521
aF-8.0765241049368051
aF-2.0871839152913907
aF-10.393211703724376
aF-2.6813354801082774
aF6.6717021247415964
aF-0.17239567908225051
aa(lp14
F0.070638744653084826
aF2.1846145698390282
aF2.90946031824374
aF0.67628907567507823
aF-0.50683215155836392
aF-1.8781949365443356
aF-3.2252922835816045
aF-0.11654343191848195
aF0.74774015097057767
aF-8.3269418828696899
aF-0.20600707299380613
aF-3.3489836168425597
aF1.5532338082679729
aF7.508352586253026
aF-1.5435096269673194
aa(lp15
F-8.6025180605512475
aF-7.3261328606326597
aF-11.127828627669253
aF0.065541704529291173
aF10.343418507118654
aF1.6397830312843289
aF7.3189275249776324
aF2.8187060919159603
aF7.2529383039585928
aF7.1532101459780186
aF-6.6228805082426323
aF3.8072496137235525
aF2.5896410721294272
aF5.9428841953775366
aF6.1139548540709923
aa(lp16
F-8.1968496469662178
aF-2.7061744826323983
aF-2.9236290862025931
aF1.1839077148255042
aF4.0886629076007202
aF1.486998358076532
aF2.7031045467969728
aF0.47830787610007464
aF1.596861039433459
aF-0.37762522386453984
aF-7.5131299042390891
aF0.73146458262971226
aF1.6291755574908084
aF1.5144031703399996
aF0.77852157293792945
aa(lp17
F-1.8747268541183348
aF5.708540176035318
aF-2.0539691847431181
aF0.1045387174270785
aF3.6487195300978064
aF-1.2132756027034313
aF-0.86428905348234342
aF1.6724930235092468
aF2.3092249558764966
aF-1.4545695613078395
aF-3.5365101687115219
aF-2.4482679963906158
aF3.875067160723261
aF2.0866053685255324
aF7.4460150124453497
aa(lp18
F-2.3848989486914602
aF4.6432554614645429
aF-2.1309223538119686
aF-0.15010744506252191
aF3.5361232314886988
aF-1.3695383883001691
aF-0.54966042430451612
aF1.4841356519125881
aF1.9261638207246297
aF-1.3308808351817083
aF-3.8879834679493568
aF-1.3895719308732402
aF3.0689999741151373
aF1.5322098003267739
aF7.4532524552730353
aa(lp19
F0.21358508742265356
aF-4.2257725046234063
aF-1.32292803406836
aF0.11889041463551009
aF1.0822409409244069
aF-0.74499209043864967
aF5.850552276565403
aF-2.900720344648184
aF5.33949557904283
aF-0.33361577155468625
aF-0.34595368422588962
aF-2.7068517589954553
aF-3.2058867283596109
aF1.4599455598108373
aF-2.9481031494476335
aa(lp20
F-0.2235804604968569
aF-4.5685390785321944
aF-1.6946317098973991
aF-0.036686459795578663
aF1.3950708738155702
aF-0.52176989677160712
aF5.1193750887614478
aF-3.818703820425041
aF5.0690780800092021
aF-1.1844056209340288
aF-0.70354518397712373
aF-2.4300409419558027
aF-2.6905434725931467
aF4.0760762095657448
aF-2.6052829499138097
aa(lp21
F-1.7862556506349161
aF-2.9464380467047833
aF-5.0824277882634208
aF-0.11769112094236074
aF1.4081277233767251
aF6.6906987054309255
aF2.2796520648728986
aF1.1025302584559407
aF-1.3226420939182331
aF7.1894678305329913
aF0.72068852560322882
aF6.1191691271057955
aF1.4098451323638734
aF-5.2351388740974691
aF-0.2097578240032183
aa(lp22
F-3.2514957176951844
aF-3.1398990621468865
aF-4.3768208916300591
aF-0.25953295272020299
aF1.0609154016343334
aF3.9875692575330448
aF2.1704871351801369
aF1.7675917911991923
aF-1.4323508129849347
aF6.7576106059497825
aF0.98734637220982113
aF4.410975732997974
aF0.79201449985277339
aF-5.2718301383768518
aF-0.29596090774364642
aa(lp23
F7.47330874340875
aF5.8623556505107093
aF7.3835453893335536
aF0.37122424955266631
aF-5.8740912296805767
aF-4.1819489521566693
aF-3.9378518266798097
aF-2.8458979445246877
aF-1.7085716246896636
aF-0.87062383159675449
aF4.6866303918585928
aF-2.2130703209560907
aF-0.79747610060938934
aF-1.8432790179129459
aF-1.7251641286808885
aa(lp24
F6.4924794111721225
aF4.0722606525289153
aF6.2400052183568073
aF-0.19033418158065452
aF-4.5530224355437001
aF-3.8369303947028546
aF-3.9022279082889142
aF-1.2206757098777896
aF-1.7479899177123066
aF-2.0522912989117552
aF4.7851974737074734
aF-2.2456229994614962
aF-0.58379646835643961
aF-2.0404523250547646
aF-2.6628009314030012
aa(lp25
F5.1298801051673202
aF6.3160622033623515
aF2.5925675614100046
aF0.15730819212827968
aF-2.9709711639203613
aF-3.4001337883072682
aF-3.7395998361125833
aF-0.47603559149571439
aF0.012348065091880077
aF-2.7020121123901326
aF-0.19702056076516136
aF-3.2888403614308563
aF1.6292089265941192
aF0.18988448363570903
aF4.6904488903995425
aa(lp26
F-3.2723111357367349
aF1.2635136003753713
aF-5.1526932414367153
aF0.15372192000214069
aF3.0045131628311039
aF1.4807314457351957
aF0.51054856224169121
aF1.931389916141234
aF0.012219885193627654
aF5.6956509987254105
aF-0.49908463819085302
aF2.3526429161966922
aF1.9356670411256551
aF-1.3545157933207184
aF6.2265703252978231
aa(lp27
F-1.6889687394037058
aF-5.1499342093986016
aF-3.472617938616156
aF0.17250620862601759
aF2.3011544587448927
aF1.576928970679093
aF5.8862153513366495
aF0.05072160640565164
aF1.0001258248430489
aF5.7863913254128168
aF0.58968686637698464
aF2.5236362494874331
aF-2.8472835959557803
aF-0.86268648514143464
aF-1.5237124420504029
aa(lp28
F6.0251163744395813
aF-2.2588391610886633
aF2.19018560131375
aF0.4757722540855287
aF-3.2728412707050176
aF-2.8940128176956832
aF-1.3274989681281428
aF-3.9626601351070674
aF1.0406502436339939
aF-2.9333601201266415
aF1.848652603451304
aF-2.8994437980369039
aF-3.6621550974239705
aF0.47358011057577526
aF-3.9203043613676707
aaa(lp29
(lp30
F2.9217410360218214
aF4.4446301064094289
aF-0.43392658871638468
aF1.9093868312831421
aF0.33652702203331675
aF-0.86035107076060291
aF-0.69077112043196109
aF-0.49916606405646508
aF-0.95982690008341631
aF-0.37221687542036147
aa(lp31
F2.2362392681070462
aF2.3533748338552574
aF-0.8156124515044787
aF-2.4724201384916249
aF0.033827705645307495
aF-1.8324084373722624
aF-0.31401511755857986
aF1.4882748726820878
aF-1.9885732832115157
aF3.4315680358999452
aa(lp32
F3.4616826628389101
aF3.0797772289849932
aF-0.58818332823132535
aF0.30493223837661448
aF0.74312513429342975
aF-2.7154209430021887
aF-1.0631270556149797
aF-1.961958792690303
aF0.29656015181617196
aF-0.98277420613771438
aa(lp33
F1.1625991963634825
aF-0.31516265928327869
aF-0.4522878554764222
aF0.41638896888630661
aF0.88687652782319493
aF-1.0628655701609062
aF0.054246889729853781
aF0.41369531828060807
aF0.80846375003021187
aF-0.48407018220711384
aa(lp34
F-1.412310753614987
aF-2.4384258502063232
aF-0.10255374386982573
aF0.76168690672300776
aF0.34815200771371918
aF0.90634792714863366
aF0.79694767748068851
aF2.1033127852740487
aF0.21572296886673628
aF0.69284694278950198
aa(lp35
F0.16319122263543431
aF-1.3136361817276658
aF-0.27254496369096054
aF-0.837537189727937
aF0.92893204473042834
aF2.426675013788766
aF0.54444172408252078
aF-1.8609314761588358
aF-0.74641883700533262
aF-1.3813594243010594
aa(lp36
F-1.2602816745582575
aF-1.904828847869692
aF-0.43352431057110324
aF3.04834397714168
aF-0.016372178643757777
aF0.96086935987947619
aF0.017558034366971339
aF1.8511690668931082
aF1.9090466391192504
aF-1.3368037044319983
aa(lp37
F0.14940223007658698
aF-0.38671094368222148
aF-0.59267878781287109
aF-2.1641855140196369
aF0.48461792730281406
aF0.37404081127102684
aF1.4622959269451274
aF-1.4123902906030927
aF-0.60458757359231163
aF-0.30776670344797863
aa(lp38
F-1.0793377475064705
aF-1.772804684957284
aF-0.36322359959857192
aF4.1755525219834588
aF-0.0059804514877594816
aF-0.93373702555753979
aF0.15233426547827586
aF2.9360685682008318
aF3.3890983147537863
aF0.84907893328452499
aa(lp39
F-1.6861934601892514
aF-1.9223770688345192
aF-0.90217548264324798
aF-0.29880490715698044
aF0.35982127794295149
aF4.4379389299814926
aF0.73647782613383694
aF-0.80611278398060926
aF-1.4563680207990464
aF-0.069907587910897503
aa(lp40
F2.0108886499957985
aF3.0413593368283518
aF-0.38165906300049968
aF0.46179181043770878
aF0.50095262445227862
aF0.73260292212416211
aF0.46484832316679314
aF-1.4884948520447085
aF-0.62492698821131609
aF-1.7863440747798522
aa(lp41
F-0.2837526557613147
aF-1.4954910290501349
aF-0.54243901390940863
aF-1.9408423253737506
aF0.0079669531780533574
aF2.5398030912686465
aF0.14458913401136933
aF-2.1426873584945261
aF-0.36568615497182821
aF-2.2645313825774345
aa(lp42
F0.58873358835930867
aF-1.0852553205532809
aF-0.17471552791280981
aF-1.9143275938904565
aF0.061353528960585477
aF-0.37856921719419462
aF0.91222113036949948
aF-0.014516663759274131
aF-0.69127108855141528
aF1.3549752687136427
aa(lp43
F-0.3374957631098206
aF-1.3475777192921274
aF-0.34845345180994391
aF1.7138372903405128
aF0.13914024965893962
aF-4.2475062616065316
aF-0.062426370993123023
aF2.3751818555880493
aF3.240127789385034
aF0.22721993542491004
aa(lp44
F-1.0749971206024764
aF-1.0997627542857111
aF-0.50108432401025382
aF-2.4438669089068439
aF0.46078439469291554
aF0.37896468892606155
aF0.39967541275406526
aF2.9832115692216417
aF-1.4323611147245563
aF5.9205425434933021
aaa(lp45
(lp46
F0.3763454554963
aF0.76396590220797789
aF0.070716013130233263
aF-2.279975838499515
aF-1.1675036122167861
aa(lp47
F0.39348512519407824
aF0.31649175795404527
aF1.5266431532614522
aF-3.1730174304602436
aF-0.80664781868449287
aa(lp48
F0.42539793205570581
aF0.18606761196783131
aF0.41687897016018766
aF0.35206461541253331
aF0.3007734038382962
aa(lp49
F1.9657474870369123
aF-3.0112486390099629
aF0.12492510196261572
aF-0.35233900492927772
aF0.2489248954605974
aa(lp50
F-0.47713111150949727
aF-0.43289758418658925
aF-0.92741145402333403
aF-0.27398964150850413
aF-0.96855383138164786
aa(lp51
F0.98057191946014977
aF0.38088748619530222
aF-3.6979545267785858
aF0.88197988707232455
aF-0.3375859390874526
aa(lp52
F-1.147095247567645
aF-0.34646255644289542
aF-1.2263341139117896
aF0.22824872753687267
aF-1.1618655861173688
aa(lp53
F-2.0015702248006511
aF-1.8261440190613267
aF0.71339138526547397
aF0.7314813353508216
aF-0.5011834481416152
aa(lp54
F0.15144470598336437
aF-0.82982321898156264
aF1.5694047312497854
aF1.0038529144473034
aF-0.79516914825553919
aa(lp55
F-3.1558979142341088
aF2.0050836559460192
aF0.66863938267016687
aF0.3180656046596248
aF-1.0857325949289907
aaaa(lp56
(lp57
F4.542768548746337
aF0.39453403105097268
aF3.0182010218703663
aF2.2886976297490635
aF-1.1446818223717687
aF1.278425125512366
aF2.4038743593869754
aF-2.0467074788286537
aF1.8679838385568539
aF4.2597970620452612
aF1.3683263937906223
aF0.74722082614656904
aF-0.51481033695510325
aF-3.6335602121168113
aF3.9039264676006922
aa(lp58
F1.1045484904552616
aF-0.2273108007429302
aF-0.4688891973272809
aF0.36772021010368927
aF0.85148538113142125
aF-1.1920610151256974
aF-0.63018105098417465
aF0.63706552043423958
aF0.47583220693159906
aF-0.848956015456521
aa(lp59
F-0.41471316226543997
aF-0.80519556152351313
aF-1.086090288273202
aF0.028402002385110009
aF-0.45460629429712857
aaa.