(lp1
(lp2
(lp3
I1
aI0
aI0
aI0
aI0
aI1
aI0
aI0
aI0
aI0
aI0
aI0
aI0
aI0
aI0
aI0
aI0
aI0
aI0
aI0
aa(lp4
F4.6597192956445943e-10
aF1.5457480853329224e-23
aF0.15533553958948576
aF3.9705305805749618e-11
aF1.8713921692980484e-09
aF0.99999999929451677
aF5.4194673732453737e-07
aF1.7652785740669283e-08
aF1.4099767782787489e-06
aF0.36357045730548321
aF4.5736035625399975e-20
aF1.7149559265783299e-13
aF1
aF0.99999999902577708
aF2.3754099171064808e-22
aa(lp5
F0.0024836387364335906
aF0.99896971122885314
aF0.98129497910861596
aF0.99999922005992492
aF0.92848800310405677
aF0.18961556536076293
aF1.6945197816048286e-07
aF0.024067891284114171
aF0.99981896489507771
aF0.00055636331835576583
aa(lp6
F0.99321996574434834
aF6.9141658584492504e-05
aF0.009289249820297751
aF0.011094867737894283
aF0.0010368121705973457
aaa(lp7
(lp8
(lp9
F23.960572323175825
aF-41.2114749807428
aF-14.785331163519773
aF-2.6038986452233561
aF-8.7225189816040647
aF30.236717290791063
aF-4.1486288606990698
aF-44.266826033487597
aF-17.286751775921253
aF-10.513843916790275
aF-10.274239917015985
aF-40.046003296852582
aF52.89140007312843
aF8.9933243076927543
aF-30.373837381086592
aa(lp10
F31.631090503903824
aF-19.609385835941797
aF-25.428970348165691
aF0.064385149282729218
aF-3.9543465212860163
aF8.6472628298881755
aF-3.6728417976024823
aF-7.656918864067733
aF7.1475688222867086
aF-9.5324166622152742
aF-16.168748373389558
aF-30.176924650660855
aF-6.3977182983721201
aF24.650262675196032
aF1.6877329667993406
aa(lp11
F18.9732033530798
aF1.5558974743317475
aF27.471742512413687
aF-4.9140008660710031
aF45.166972017261031
aF-39.859564849656977
aF2.2151646167269519
aF-6.9331502089571098
aF-30.132450970987865
aF-9.1541699034622699
aF38.158033471469061
aF45.907118446658117
aF-13.476864912547017
aF-44.337823578722428
aF-17.872958559979999
aa(lp12
F-4.1519951597906868
aF-18.350804608379775
aF27.93214529452284
aF1.7391597214150063
aF-8.3724157656269487
aF-24.770489224805281
aF-20.124934298630698
aF-11.194356227703365
aF-28.203298296096204
aF0.090979615571974565
aF13.16177443585163
aF14.777330655202144
aF-12.853003703042699
aF6.0031976586777231
aF-1.3204543261459416
aa(lp13
F-25.202518198320323
aF0.23071393345714841
aF23.093945769518289
aF24.382647146222101
aF-2.8610125838934413
aF7.3220260263796622
aF44.837961632532867
aF34.452150633855645
aF45.637787822372388
aF48.437384592394309
aF-12.630238402578662
aF35.910582211303073
aF0.40126057407540533
aF13.365097169601583
aF-34.535795573112615
aa(lp14
F-32.679004475478209
aF-8.2158729021559385
aF10.901597495907525
aF-10.258524161424075
aF2.0193449669402352
aF5.4331460988536167
aF11.162041673421221
aF35.714833038381848
aF1.1649158992249833
aF19.977185684561029
aF-23.497277210125308
aF8.974861187792543
aF0.039081559767807743
aF11.594142666741522
aF1.3978296688160177
aa(lp15
F-42.218609666573606
aF38.443157846469781
aF9.4246974262525995
aF-37.797606680638921
aF-7.28666480437413
aF-25.251163396781237
aF-44.959975256736357
aF-16.542512035487661
aF29.799822273516867
aF-10.27214786056104
aF-19.142931032117584
aF-32.696271528233758
aF25.307816812939944
aF-52.094793340052597
aF26.53634337566557
aa(lp16
F1.5759058221921822
aF15.065328704616379
aF6.3692468859955707
aF-27.907825753825779
aF-12.534500491429702
aF-22.468022333725933
aF-12.120024690905414
aF5.4906595892657659
aF5.7298145251941062
aF-4.0239792446645799
aF-19.403767747085848
aF-28.991251909575332
aF-8.6671536346820783
aF7.1958040648136876
aF27.501843662341599
aa(lp17
F-22.722163981954697
aF-3.1152552674002441
aF18.708102683859106
aF-2.5748363200415612
aF0.95315625456988973
aF-23.082047253239761
aF-5.7100164669586668
aF3.4576633191997437
aF2.8937432695878238
aF1.9320526128622939
aF13.657438700195664
aF30.116063679334367
aF-23.639537252600405
aF-17.72055573617801
aF5.6447063801841217
aa(lp18
F-25.949629733708388
aF27.431694152119299
aF18.885691717960597
aF-18.898503216729637
aF-1.9974296870193033
aF-6.5273388284008256
aF10.126033883506016
aF3.7189996639075709
aF3.3223411180519391
aF4.5461748575951217
aF13.589256411808101
aF25.529703700548701
aF-15.715912515635655
aF-16.090657710424036
aF4.0400570435358878
aa(lp19
F-2.4646982806753353
aF-1.874544807888576
aF-19.568611815175419
aF-8.7345175720005592
aF-5.4852958775326783
aF43.45863231035721
aF1.4264425499850473
aF10.510998530971747
aF27.804415551125338
aF8.2756876150250189
aF-19.946395236949563
aF-19.735285396095733
aF5.3174807373884789
aF1.7073285005597152
aF-0.2548539558035896
aa(lp20
F-4.524183709467847
aF-1.2152694090776748
aF-0.64873443295543565
aF-3.5024178564273916
aF-5.4154772305368262
aF34.99322375527295
aF24.200292742435948
aF10.079640312533188
aF20.651030099635552
aF3.9776688422680055
aF-28.796133069892367
aF-18.048296709318187
aF8.2071311231184474
aF3.1329701992365955
aF12.863170720905252
aa(lp21
F27.16441147247852
aF9.095915596235109
aF-10.666713978286804
aF-18.839861757502149
aF-0.40240376259133498
aF-15.400115885604064
aF-30.529186145217565
aF-36.427702185993823
aF-24.656209424890797
aF-37.140151336685619
aF-5.6076944308325647
aF-20.874911877483488
aF7.8830120577730538
aF-18.37057613161782
aF2.9855856698594154
aa(lp22
F0.51222237383841174
aF6.0055722372695959
aF-5.3062819552041427
aF-1.1715946268486674
aF0.078554118341776877
aF-13.101685146370233
aF-28.379109602760426
aF-24.782961815347065
aF-7.6833822612856366
aF-25.193688735072421
aF14.146685642264412
aF-9.2411108903207193
aF24.37109906171079
aF0.91815091804793547
aF12.483131350550904
aa(lp23
F-10.232785137353018
aF-33.224729876783378
aF-2.0954142246775125
aF16.623338161211962
aF-2.2259430137044252
aF7.9181760100817566
aF18.80762408519206
aF13.747955981440031
aF-3.1758052240463344
aF-13.57341580479758
aF11.844989253242973
aF9.2757095954790856
aF-1.5875973107869943
aF6.7740024758215576
aF-27.616959525550801
aa(lp24
F3.4027883336915306
aF-20.190165326601669
aF5.3508521825990805
aF25.062840949497218
aF0.73189769401946969
aF15.325599858038132
aF2.0736618882136888
aF12.188276992242717
aF-0.73281773437653386
aF9.264489627059973
aF17.209070926754499
aF2.1570117850477821
aF-5.3933123589261447
aF16.147868998315769
aF-30.820717727500433
aa(lp25
F-3.9472644764010969
aF2.7070770446690338
aF9.3804972344636024
aF14.175952993196086
aF1.523691824742943
aF2.8967742583712681
aF5.2978386239869906
aF9.7987286549079169
aF2.7184514983851251
aF2.6245243919808754
aF11.208096665346236
aF35.024783546932944
aF-0.70516812186983224
aF-0.19874467988174735
aF-16.143267715355645
aa(lp26
F-1.0455575273935878
aF1.6141870569033616
aF3.3248136604566185
aF-17.841880827420816
aF1.7663907952599116
aF-9.5585828410180511
aF-9.4394587019412484
aF-14.809497643112101
aF-6.9391944278566688
aF-1.2867029468011491
aF20.719362502777919
aF-2.3516382541679173
aF-9.3561267397142966
aF-32.116180708707951
aF0.21951881416093355
aa(lp27
F0.86402917447883965
aF-1.0048254764376647
aF-1.8181583288501035
aF0.7336773557217906
aF-1.6931314324107376
aF2.6632676468174141
aF-11.050737449423814
aF-16.237119630700604
aF-1.8668572836886312
aF-2.2937778147142951
aF-4.7747710252713773
aF-17.927121863914373
aF-0.18302911006666187
aF-0.69320461022750091
aF4.4408513643781102
aa(lp28
F-0.031762539836726306
aF-10.947232959501079
aF0.93300371759160183
aF1.3916601279388259
aF-3.5655557787539887
aF9.1366040442383429
aF3.5232868889832707
aF7.0701172697200114
aF1.4596002371965298
aF17.247304474293781
aF-4.5264543419195382
aF-2.4843599768546372
aF7.4397445958019697
aF8.9100545828342703
aF-3.1574970395892614
aaa(lp29
(lp30
F-2.8578962249710869
aF7.5141549937412124
aF2.2290593073293477
aF-1.8811098924223875
aF-6.4022531360902439
aF6.7725558433880426
aF3.5314659885324198
aF-2.5373707060222461
aF5.5070953132906606
aF-0.12666458453802554
aa(lp31
F4.783246563856542
aF-6.7534422901416304
aF2.083435118532988
aF-2.192309513273119
aF4.0320623307463137
aF-3.3728887167028612
aF6.3457413285561159
aF5.9121439826369029
aF-4.1624052294575646
aF-2.4039707764452043
aa(lp32
F0.2505234404689396
aF-8.1124719556641107
aF-6.7069316930497331
aF-2.9574397050665864
aF-3.1908545766986167
aF1.6453971542352022
aF1.5162928212915605
aF-0.18738281036511356
aF1.3929897038689409
aF-0.031814229155230342
aa(lp33
F-3.4953091038447246
aF-0.55448538013398707
aF-5.8683740857015261
aF-1.9001249923454839
aF-0.32301829614808547
aF-1.1288227721379724
aF-6.604822889894141
aF-4.2700707648111011
aF5.0096221603107214
aF7.3886222789672615
aa(lp34
F-1.945872870042257
aF-3.4425051232795174
aF-2.6645551957328628
aF-4.336478426399367
aF-10.780562270286781
aF8.2404950438017597
aF2.8144304537307812
aF-1.5153034891017247
aF2.7550638216473757
aF3.0484452832250213
aa(lp35
F1.5778853300310658
aF3.7790361815396785
aF1.3644761767436737
aF5.891886251798848
aF5.001412358955001
aF-1.3043356125806098
aF-6.5298039672943906
aF-0.04570445046062515
aF3.0429749103550652
aF0.76878966916232383
aa(lp36
F-1.5200957468552083
aF-3.773496039354864
aF-3.3336633830924352
aF4.5760308628107316
aF5.2648349801856735
aF-6.7263722281667242
aF-5.4005209581574878
aF-4.0122276830254364
aF4.7809800101905369
aF5.3899082950565802
aa(lp37
F-1.7991710668743126
aF-3.5564960713301987
aF-1.4703706397444982
aF-4.0144789326354759
aF1.0408226103638165
aF-4.3962850578528929
aF-2.836793556365417
aF-1.501826469389294
aF3.0860520317832809
aF0.8369347169931638
aa(lp38
F0.97336217061296482
aF4.248024423765786
aF4.5406269026785102
aF-4.9765353083772004
aF8.9721920797776811
aF-4.5859547884387064
aF-2.5248283740971975
aF0.16382368618743604
aF-0.6239893550613721
aF-2.8212435658428103
aa(lp39
F-0.83024155018534329
aF-2.8893570178773791
aF-1.2453398447542199
aF-1.2610215303500019
aF2.7803703444408279
aF-5.4417574952527881
aF-4.0369547918079389
aF0.45849809231393768
aF4.1777364410518123
aF-0.15825035315947888
aa(lp40
F-1.0353971518113056
aF-1.7176939327005498
aF-2.3960727615362676
aF-0.42091584212705757
aF-6.5329751125043973
aF4.7351797839595129
aF2.0071296359922646
aF-1.0066457754611615
aF1.7688284566318557
aF2.8127312388562729
aa(lp41
F-2.0685522558382545
aF-6.995178700456659
aF-4.5694307660617204
aF1.0193496431449072
aF-0.084058873773465256
aF0.72732234349423219
aF3.596916134384835
aF-2.7094234301245308
aF5.8833150073682212
aF4.318274035836553
aa(lp42
F-1.367986933406246
aF1.295512391939563
aF2.4500216340984533
aF11.438929738706841
aF1.514705906192497
aF-1.744406142332543
aF-3.7553110315434601
aF0.45697277826840371
aF-1.8219399812939396
aF-5.6557215363996676
aa(lp43
F-4.6834824168125548
aF3.5568978162757632
aF-1.8168154585983647
aF1.8560226093293313
aF1.7626333389260254
aF0.97189660998135374
aF-5.1152388911090219
aF-4.6981073471433117
aF7.6939071542434334
aF1.7055493349267195
aa(lp44
F2.9674939922660073
aF-0.73298258868297528
aF5.873891014571889
aF-4.1650294676229507
aF-0.74837706218417055
aF-2.8443256877001066
aF3.9665389757376306
aF12.102850331646012
aF-3.8679013085841714
aF-6.4155578726603197
aaa(lp45
(lp46
F-1.5724715296032206
aF-0.62310534558472286
aF-0.83299795324530734
aF0.63563212799803492
aF-0.080384583810877652
aa(lp47
F2.3741619248500645
aF-1.9831254384381793
aF-1.538297586144362
aF-0.45617553056030691
aF-0.74492334479186051
aa(lp48
F0.7917378790877635
aF-1.53501182048423
aF-1.7610677991979882
aF1.0077979948955647
aF-0.26383616599327153
aa(lp49
F2.7086350662997023
aF-1.8958430057297102
aF-2.1266537210791707
aF-1.6684657077336191
aF-0.14218762824944509
aa(lp50
F-0.74512295238222603
aF-3.7826071086966593
aF2.1095975064127526
aF0.090187027307120859
aF-1.7720830276962736
aa(lp51
F0.79070623278765129
aF1.7099877987570806
aF-3.4939531249078861
aF-0.78253587289356019
aF-0.52921352802055543
aa(lp52
F-1.1677799523561005
aF0.86572565980974392
aF-0.45807608342755674
aF0.72991736963324116
aF-1.8616201635768499
aa(lp53
F-0.99185864758311049
aF-0.71345506818152371
aF-1.1088792715591014
aF2.2811162791494803
aF-0.49588358166134233
aa(lp54
F0.47114243552950813
aF0.71488163848976272
aF1.8822603353294232
aF-2.0674674445610504
aF-1.6944103775755734
aa(lp55
F-1.3647273885813769
aF1.2249004501061946
aF0.44349170618126343
aF-1.8358189996420624
aF-1.6872227241465221
aaaa(lp56
(lp57
F-13.758110145650159
aF-3.0966012651739625
aF2.1754944191453558
aF-11.087113484015893
aF-13.393409190968708
aF-15.597725147124402
aF-21.441510381729842
aF-9.3003792209302478
aF2.6498996684943297
aF-10.023247557769821
aF-10.7598833128375
aF1.676923281637154
aF0.86544209356269741
aF-0.83808600412014922
aF-20.815694314328507
aa(lp58
F-1.2592163641166483
aF-0.44392479765397186
aF2.4575084003313421
aF-5.2049182487801646
aF-6.2434778301291489
aF1.3481339747377035
aF1.0418280723439073
aF0.44499546587332656
aF-3.0335833385340387
aF-4.2501941313401836
aa(lp59
F-1.7691741368656135
aF-1.7135229536139449
aF-2.4277899907618803
aF-1.2839041020082989
aF-2.275870856249659
aaa.