(lp1
(lp2
(lp3
I1
aI0
aI0
aI1
aI0
aI0
aI0
aI0
aI0
aI0
aI1
aI0
aI0
aI0
aI0
aI0
aI0
aI0
aI0
aI0
aa(lp4
F7.1455022250279165e-08
aF0.99999998359206543
aF2.3078070601856779e-12
aF5.628214982432751e-11
aF4.3068911761050434e-16
aF0.99999999991497179
aF0.99999999999997602
aF9.153825262909942e-13
aF0.99999998114910171
aF0.99999982961124445
aF4.1185787178998314e-17
aF3.4097570011629699e-09
aF0.0029090721589880111
aF1.583116176246004e-10
aF1
aa(lp5
F0.25968576771970203
aF1.2126052532194276e-09
aF1.2611001776881283e-06
aF0.99427281471054685
aF0.98396347544160645
aF0.99915577503177377
aF0.99666279571222971
aF0.99999672583714505
aF0.98507111910722622
aF0.0025433961977268634
aa(lp6
F0.9927362222630054
aF0.0024349730948283752
aF0.00037453398355018653
aF0.0071423421095589985
aF0.00067355876140423176
aaa(lp7
(lp8
(lp9
F-6.8060907425089452
aF1.689216424648712
aF-18.261237732404538
aF-15.426724527830322
aF-20.71007032196022
aF27.4904313240961
aF16.760562969302065
aF-21.377432648879992
aF13.852486896691449
aF17.969277626490747
aF-19.31827271245762
aF-16.028173254450358
aF-17.619749961272891
aF-7.1959638851459822
aF32.066494103407976
aa(lp10
F-8.900513967172337
aF6.9987048907894307
aF1.0719870942596523
aF-0.95923139752515729
aF-2.940290254693267
aF8.9812604503686799
aF0.078777780728049585
aF-3.6501608426770948
aF-4.6977547437883302
aF5.9081642830852212
aF-7.53239046839981
aF-20.545508722155621
aF-22.589735430324708
aF-8.638015188111277
aF5.5369421447401344
aa(lp11
F30.514410911043431
aF7.6549289921985624
aF-15.930466623598736
aF24.702747491630408
aF-1.8351438282045596
aF-14.726453181716039
aF16.011679514088179
aF22.724941888360867
aF-21.845701885742869
aF21.590223024388958
aF25.504601061057983
aF-20.489546950087171
aF15.3387056692766
aF40.531129584239849
aF-22.074266461897736
aa(lp12
F9.7731977506589729
aF6.0437849314817518
aF-18.406585107525583
aF26.090570512001413
aF0.33011976974204027
aF-18.744127553103265
aF2.1304013107625765
aF11.219411123737752
aF-6.3903826420771539
aF5.8828859363516592
aF-7.4423095175972556
aF-21.271138300193513
aF0.39886875553803253
aF6.9847395363628539
aF-2.0533669136401156
aa(lp13
F-19.456151724503854
aF-34.611087052810198
aF28.148367045353396
aF-21.765502584971998
aF-23.460779059204544
aF-17.183554067026414
aF-17.953696512277091
aF-11.177344164440751
aF20.254044959407388
aF1.9143240878998302
aF28.29627462551052
aF20.357926076735296
aF20.379426096118255
aF-12.884323644990873
aF6.0795756817118809
aa(lp14
F-17.570340585210221
aF-7.9968560689851129
aF11.352674007007641
aF-0.17682058935513992
aF-0.58894354912929081
aF-5.7913801811130572
aF-18.451004374849095
aF-1.9155860075687328
aF-1.145244746625913
aF-12.848150587591062
aF9.5433501139415657
aF3.6461102208829548
aF1.5965710292781368
aF-9.9733483330934032
aF5.8731100481983072
aa(lp15
F-25.142056482831222
aF1.2855819784599194
aF-11.817344592285258
aF-19.782322767146542
aF24.138220248140197
aF15.171346703674994
aF20.473205579285136
aF19.737362547767226
aF-24.138408435293496
aF-34.056600660228561
aF-15.230311988111115
aF23.125956947553703
aF15.669925979138768
aF-8.594118115263564
aF-13.038120291792234
aa(lp16
F-17.297111174128442
aF4.1856334064508314
aF-1.4991259340461467
aF0.1541497759301772
aF25.448341646755246
aF2.6093306932944018
aF-1.6086790056235207
aF3.3709010592907553
aF-8.3925594015910292
aF-13.241142932338475
aF-10.210571266985434
aF6.4028629962640933
aF0.94582439492196613
aF-10.563409378284531
aF1.9620270884431892
aa(lp17
F8.8444695710489434
aF-8.2499328420258102
aF1.6355340804842102
aF9.8216454318938506
aF11.822221728823871
aF-15.16081272580201
aF-1.5143040499278604
aF11.27196055675568
aF-9.1752725882040007
aF-8.8330815119970651
aF14.110207070151123
aF10.318060880694413
aF17.210018152182794
aF11.150088241996361
aF-9.8741970107862311
aa(lp18
F7.8197247087501589
aF-6.5809218898994466
aF4.7255449949494563
aF8.726337355978492
aF13.356191302116882
aF-14.185724465019161
aF0.17893180920394147
aF8.0242918252162809
aF-3.5680517528029649
aF-7.014328733257198
aF9.573623826319194
aF11.226488442178258
aF14.897864773581164
aF12.24258307007865
aF-12.354090962038761
aa(lp19
F-14.892681063067695
aF-2.1749853870384164
aF14.772356869674626
aF-18.268855325109516
aF-0.87443851139868056
aF14.971445035450122
aF-0.47136565115649048
aF-15.387398866463958
aF7.3407425866772549
aF-8.1555201070852537
aF-1.4996946318242101
aF14.149646392387163
aF-1.8449808849650919
aF-18.04620114132128
aF20.77458814758192
aa(lp20
F-17.256664465077741
aF-6.9352928714877766
aF14.164407059258862
aF-20.358949915410342
aF-0.6354061825168269
aF11.807086538675325
aF-6.0742004613966687
aF-11.368878186451935
aF1.6920035343366067
aF-9.8790111348031147
aF1.949376102711142
aF15.26442437030912
aF-9.1850745615843685
aF-15.654841174147615
aF20.557019460030279
aa(lp21
F20.03777909682346
aF22.964669933910383
aF-16.891247443726854
aF-0.96066349757858616
aF-0.15157848040733643
aF8.9274662141500141
aF17.081222061096771
aF12.515747138476375
aF-18.619438940583603
aF0.37606736484717335
aF-19.563302520785381
aF-7.488611039963625
aF-0.90950588060817894
aF0.22703087829270052
aF-2.2626044087194397
aa(lp22
F11.560410587366674
aF22.220308074436996
aF-15.707412420452568
aF2.6501042721352421
aF3.2754251812773818
aF6.4822056631164902
aF14.134399165709651
aF8.2186795336119758
aF-10.912973183711211
aF4.053900008375976
aF-16.12471699484454
aF-6.1389958263040088
aF-0.41877526987467445
aF6.8192576864648489
aF-5.8066025895467721
aa(lp23
F6.2562493295385222
aF-11.077853154434177
aF2.2695372238784479
aF1.1509961189341085
aF-19.947438949493577
aF-7.7776971749842536
aF-1.1941201112452082
aF-5.3348569552621363
aF27.87307636859056
aF6.724865260193388
aF14.400230176518001
aF-9.0284038434823977
aF-0.39171582757251744
aF9.1642172904899368
aF3.5045623717673893
aa(lp24
F8.6558541916734164
aF-11.21837285929057
aF8.4673463615005815
aF0.8489096047912017
aF-15.68669077923755
aF-9.6125203126027525
aF0.63892007331231959
aF-1.8339109341603088
aF20.33956584271785
aF15.548732644885929
aF14.327352153337557
aF-10.806149363178383
aF-8.0319148974865975
aF10.202715792118926
aF-3.4656307252943348
aa(lp25
F9.0779151100854492
aF-10.70846048142643
aF8.0495090247164818
aF13.99632854817945
aF-15.301366780232343
aF-11.002468980619051
aF-2.9802517314088859
aF5.8062241215580714
aF7.9534468197099741
aF0.57247570193595521
aF12.769778409155382
aF1.8976899989228002
aF13.533326410467994
aF14.564890454482827
aF-9.9989320155274157
aa(lp26
F8.0307524781490489
aF7.4298390159963148
aF-3.3211238922663364
aF4.4817447429169901
aF12.986076582524285
aF-4.6136089450164404
aF9.6169143106324864
aF14.577800840285464
aF-19.076466156148442
aF-4.3495011203069147
aF1.7762970895851093
aF1.413969090466912
aF10.817340201749941
aF10.2267284658655
aF-12.662794483662292
aa(lp27
F-7.8289082624556121
aF10.713604593689718
aF-4.427777371634698
aF-13.266508324145367
aF1.7971491339940167
aF15.005141985329956
aF13.776348360844681
aF-7.8101346071559989
aF-7.8094471591592267
aF-0.28925215184923642
aF-12.339216429378746
aF2.0310678459162466
aF-4.0619690314849271
aF-12.597658953807592
aF13.829494612035901
aa(lp28
F-7.2836940783729993
aF-13.530595458784603
aF7.3164716612397775
aF-18.379968558531921
aF-17.665173076851421
aF1.8992071147275869
aF-1.3851541563924612
aF-9.6709489110613038
aF9.222997051759938
aF1.2207454120566319
aF1.4547580280358852
aF-1.1331645160327048
aF-1.5552380578268923
aF-8.975501585048324
aF12.485070177351229
aaa(lp29
(lp30
F-2.0054197419181676
aF0.55116195556430148
aF-5.8175316657928295
aF7.0632118833553657
aF5.6250842605969469
aF-2.2251044003519489
aF0.42153535877891396
aF-0.65393347617300179
aF-1.5365524475751837
aF0.30530699861841365
aa(lp31
F-2.8795283555635551
aF-2.1940493652948496
aF0.35344734193104532
aF2.7836298766962981
aF3.1920072691830699
aF-3.1207419588398184
aF-0.04842835175634376
aF0.030256401296653527
aF2.1346843354238909
aF-0.694958770118831
aa(lp32
F4.8776868749946818
aF2.3755767752410932
aF2.4609990358304037
aF-2.7882285082140181
aF0.016955593107792665
aF-1.5451628311473196
aF0.075862433820668901
aF1.9720037869002078
aF-0.49014787238878882
aF2.0595522037813039
aa(lp33
F-4.7819473827299648
aF2.9311978890596566
aF-5.8930941511067481
aF5.600975484274767
aF4.5932950087366899
aF-6.8042852954592039
aF-2.8405600250878793
aF-2.0463203034429767
aF-8.6807178569219694
aF5.4969085332485665
aa(lp34
F-7.8220632217830586
aF3.2942798825874706
aF1.3093752020669562
aF-7.0478760528032893
aF-10.813036642138067
aF-7.3962765550168852
aF-3.6423179306819633
aF-5.0500274404149597
aF6.482618500287276
aF1.2013069957079734
aa(lp35
F-1.8741388694363581
aF-3.3695688682547789
aF1.3240414975984911
aF-0.59195275304318673
aF-0.74058915972263151
aF2.662291003104162
aF0.55805196833889226
aF2.0106091082607831
aF1.5760585051497824
aF-1.7805019454961659
aa(lp36
F-10.110772787839524
aF-1.77379394130185
aF-0.9652687119972464
aF6.3917114299250919
aF-0.47935736477960678
aF3.6624913601315234
aF4.2609503315575106
aF1.2904581066126664
aF9.8150142222317243
aF-5.000377923014482
aa(lp37
F0.076194841703427579
aF1.5377830025388557
aF-0.18403812454346091
aF0.39362181845623595
aF-0.18474683396011227
aF-2.5839144845670869
aF0.38633875057597794
aF-1.7347554773735647
aF0.33710360725250893
aF-0.46190184301062054
aa(lp38
F2.5101887225913719
aF-0.0047289413210065377
aF-5.5065836350026229
aF-1.1456123429144738
aF0.8955991349652469
aF1.8551232715615511
aF-0.26866256311794451
aF3.041129765413491
aF-2.4040563903383756
aF0.74691233018269132
aa(lp39
F0.33872550828602321
aF-2.7613985166962287
aF-5.2764245075691001
aF1.7989223939807515
aF2.275164632743254
aF0.99914585777631826
aF-0.7389381309718932
aF0.76585183662919731
aF-2.5489483839879266
aF1.5858152802479641
aa(lp40
F3.839533761613442
aF-0.49932141173753891
aF-3.769997995336142
aF0.56133605971438105
aF1.4687610577654004
aF-3.2482208718559931
aF-0.80141994469376487
aF-1.0687707847571837
aF-3.1990952539850039
aF0.37042081370005053
aa(lp41
F2.7005772453120427
aF3.9415382706376887
aF3.3584322013650261
aF-4.5970161355033881
aF-5.1079294544835037
aF0.8811380499012792
aF0.43236105383690976
aF0.60598970776566918
aF4.7242655816983969
aF-0.50635677779911958
aa(lp42
F-0.27709836929075993
aF11.438039623127468
aF4.2190050113941524
aF-0.75400791351721408
aF-4.0740266347183436
aF-4.1967743692222275
aF6.4888206475939363
aF-6.3592576266715328
aF-2.2841404681432809
aF1.4477012717924915
aa(lp43
F-1.3591197760451608
aF2.313588203366209
aF-5.2237007910806135
aF5.8893868879410718
aF5.6524082026302809
aF-3.9489092258495981
aF0.091141153940563421
aF-2.1306775345541666
aF-3.3544317660450584
aF-0.111682152069133
aa(lp44
F2.7000889797982035
aF-6.8019763814036924
aF0.6888770717177729
aF-3.195905705338173
aF-2.3450419333727517
aF2.4165009064199698
aF0.42226394000014011
aF3.4740242418260383
aF-0.85763719532488847
aF-1.2487740624039763
aaa(lp45
(lp46
F-0.91542985121365839
aF-2.2736211488607823
aF3.9431757446341802
aF-2.4530679170591907
aF-0.23220413507498119
aa(lp47
F-3.4047778093983698
aF1.8900692627439473
aF1.2034251071099331
aF1.4711665789376838
aF-0.79959471523294878
aa(lp48
F-0.14430543349877059
aF-2.6569237795966547
aF-0.47671693064741216
aF1.8268404008014574
aF-0.18989175760944266
aa(lp49
F-0.24628159279484385
aF1.9122763856184022
aF-1.5123635759803529
aF-1.3723592037273142
aF-0.9574931525034881
aa(lp50
F1.4179504380836028
aF1.2940553005998439
aF-1.6155765881737811
aF-2.1556860331170942
aF-0.19139415114195796
aa(lp51
F2.5538435676874984
aF-3.254468187438774
aF-0.32359120518932821
aF-0.37938536477806473
aF-0.16681739883766558
aa(lp52
F-0.29267530581898349
aF-1.7747256980972304
aF-0.9860544985297911
aF-1.008408613047292
aF-1.4354382590273749
aa(lp53
F0.67498781058153767
aF-1.059676869683752
aF-0.10149604516925095
aF-0.59872682556563916
aF-1.0708839016590936
aa(lp54
F1.0424787439067955
aF-1.1766877668995055
aF-3.1621473668570101
aF2.1313705465802357
aF-1.0300413262964092
aa(lp55
F0.011032104365698644
aF-0.32749911198375664
aF-0.0333929561323172
aF-0.51946070005421607
aF-2.0594023844020364
aaaa(lp56
(lp57
F-4.528623527050379
aF11.36748481591173
aF-4.8998315323757211
aF-15.995742346853795
aF-14.126756107749442
aF-1.520583797431978
aF11.938144273911387
aF-2.1740597169789337
aF2.5420542327100768
aF-1.083490302132361
aF-9.4681615865635198
aF3.6530403567830749
aF13.228833545555506
aF-4.3090302715875328
aF1.461177277139676
aa(lp58
F8.1732432661870646
aF-3.6582533188021373
aF-4.2139187074172186
aF-1.8786387911498819
aF0.35789840226954789
aF-2.3838827119356192
aF0.49804897699472411
aF1.0356336267626971
aF-4.5153016598871574
aF0.41433652485092309
aa(lp59
F-0.95064934718094785
aF-1.3628948977269799
aF-1.2976584592688032
aF-0.9383901382791805
aF-2.4142127426942692
aaa.