(lp1
(lp2
(lp3
I1
aI0
aI1
aI0
aI0
aI1
aI0
aI0
aI0
aI0
aI0
aI0
aI0
aI0
aI0
aI0
aI0
aI0
aI0
aI0
aI0
aI1
aI0
aI0
aI0
aI0
aI0
aI0
aI0
aI0
aI0
aI0
aI0
aI0
aI0
aI0
aI0
aI1
aI0
aa(lp4
F0.99999966605418589
aF0.99999999996612221
aF9.9374954022729447e-13
aF5.2214788840872159e-21
aF0.0052955713025927458
aF7.5848404680187123e-07
aF0.99999993782229957
aF3.0111831393264716e-21
aF4.8520230726880835e-08
aF0.99999997495820492
aF2.7162693426204309e-08
aF1
aF1
aF4.1242444383135995e-14
aF1.5144392088076981e-05
aF0.99999998684713476
aF1.4700780807068792e-12
aF2.0781913160926972e-13
aF0.00024746153457113804
aF0.99999999999520806
aF1
aF0.99999998233819809
aF3.0301290038241554e-10
aF0.16992264802713095
aa(lp5
F0.46546471014740226
aF0.99792758071475429
aF0.996476041830895
aF0.99999953302083688
aF0.0017022135317620467
aF8.3950672370239937e-05
aF0.99921592556179928
aF0.99999803177885582
aF2.575544609053328e-07
aa(lp6
F0.99891412974895122
aF0.0036526702726017235
aF0.0021876050472590457
aF0.00059994048285335266
aF0.0012172313467071043
aaa(lp7
(lp8
(lp9
F3.3775106523670537
aF15.423783989521041
aF-23.12801345177823
aF-45.240670953333158
aF11.181902780605855
aF-10.237422553808177
aF-14.99245049816785
aF-20.199327721783149
aF-14.715836835898308
aF0.6938165123374721
aF-8.2952620530036683
aF31.538856513283545
aF25.568013825125874
aF-16.16425345465229
aF-10.658425131155132
aF14.253627989263952
aF-9.9326424561181526
aF-19.918610810078388
aF-19.422495345576433
aF23.033525948445263
aF34.50665285407915
aF-5.5232296729365542
aF-17.668392913993699
aF10.177010123961207
aa(lp10
F-0.8614493489078745
aF11.301466391971877
aF-21.852972511519834
aF-6.3155679280648238
aF3.7355568571553932
aF-10.730104771877343
aF-4.574852432557317
aF-0.72294321230476533
aF-7.3937888438400377
aF-2.2112792745003547
aF-9.5523704012198341
aF8.5864027894066641
aF4.5967640059410044
aF-6.408061636660312
aF-13.359034380926767
aF9.9822913717368724
aF-9.8592582202802213
aF-17.677489724797095
aF-1.2083663188212508
aF11.088982512818678
aF13.730912626824658
aF-6.6930231942912641
aF-4.8754677324553075
aF11.420420938263543
aa(lp11
F0.80261209170600079
aF4.6299082991296974
aF-6.1875080340556172
aF-10.766349550595987
aF1.5633948841691598
aF-3.4521126741499688
aF5.1079871501881744
aF-7.8240961011222074
aF-2.1295840865441549
aF0.56384506469184392
aF-4.5943614882430746
aF-2.5437599997140601
aF12.181600443119535
aF-7.8620765892564197
aF-7.185079748114541
aF3.9913622447175356
aF-3.5153484002960917
aF-7.9776687811028086
aF0.4990831460338902
aF-0.38999572872776916
aF9.6397580938011753
aF5.7462386558947118
aF-0.45113348354527516
aF-6.6187391343928335
aa(lp12
F0.77514078567061739
aF7.0153108672015021
aF-1.9567978434108386
aF1.7355547086786549
aF-5.9098187576244472
aF-7.2311127961014918
aF0.017010788341336309
aF-3.3760695257676998
aF0.97250264738003755
aF-0.2626709472240108
aF-3.2324487028942963
aF4.0010289767306944
aF1.374318429424976
aF-3.7236953181130099
aF-11.326179277215358
aF5.7341960564890373
aF-2.6636449020335391
aF-11.334648759642407
aF10.624128197822653
aF7.3605895500218281
aF4.4261682189741292
aF4.5283682786543418
aF-6.4427655818168432
aF-1.7269945827519679
aa(lp13
F0.52208152458301593
aF0.019248209760685898
aF17.506657241671526
aF-0.063865772353679087
aF-0.624199572504469
aF0.5345887328730573
aF2.3579579278734513
aF1.2877812614513029
aF0.12885128085257047
aF0.74497760605767371
aF-0.040884239585795006
aF-5.5962141774688536
aF-0.27201203323275769
aF0.52941405490866844
aF1.7073788328091009
aF-0.47693634027329584
aF0.051035513152158797
aF0.26732068925423269
aF3.3370222144704189
aF0.040459364197126327
aF-0.74377310790973006
aF7.1297412273273864
aF-0.1655464750452762
aF-4.5497163371236189
aa(lp14
F2.0886384589265612
aF1.1484267191775268
aF-5.7366595592030825
aF6.8525161245767379
aF-8.6620264125663731
aF-1.3944600560512099
aF10.655331943291026
aF-9.8478958460989841
aF2.0518677139305059
aF7.6835880927405853
aF-1.5400467817649119
aF5.5258540382080197
aF3.3617515472362234
aF-2.6556372228215448
aF1.9171334646804579
aF-0.1036764180020496
aF-4.6644666808629491
aF-0.68124210043641797
aF-1.4854250450795696
aF0.27575209480423873
aF-2.9361967160985891
aF5.1858086915587291
aF-0.2468966363326531
aF-3.7751653903839149
aa(lp15
F2.0955461542832166
aF-1.7225066971693037
aF3.7122056345428081
aF8.5010564334961423
aF-2.5032055674223574
aF-1.3205499859941274
aF3.1701068671080965
aF-2.3036719094567433
aF-1.6644792650879812
aF0.47996446428398098
aF-1.8431006104590228
aF-10.629513671308962
aF2.1197069861235271
aF0.23300274126144488
aF-1.3586212830730502
aF5.0026613188948597
aF0.85812597401446966
aF-1.0405338979127357
aF4.8654122907143824
aF4.9149512252105181
aF-8.2264126756644895
aF15.815527687189205
aF0.50638980001701661
aF-7.3181912973301237
aa(lp16
F-1.3259973889295156
aF-3.3719897557626699
aF-0.47115029547590032
aF-2.1146296639944051
aF-8.7591231252129802
aF0.92636040051719615
aF7.9730327161993504
aF-7.6672778176252478
aF-3.2246546081475613
aF2.9150161423109386
aF0.39012928935133867
aF2.6649192432121298
aF4.5169103391648759
aF-1.1486564751059427
aF4.5239432257672556
aF-6.9524475729685555
aF-0.62119522547954575
aF-0.71392170524313037
aF-2.1897805027331332
aF2.79441781601296
aF-0.26801841505942547
aF4.3881686391626316
aF-1.8609034924435059
aF-6.4246131244927387
aa(lp17
F-20.987111100590575
aF-2.8822500859317572
aF2.1544320901117651
aF8.1460254259231455
aF-13.101460898701889
aF-1.3664692568113856
aF5.3168618531414271
aF22.414777876511174
aF35.005092841427242
aF-10.81547719316962
aF27.720899066278236
aF-23.838033420881032
aF5.5278250344474165
aF15.50713137303071
aF-7.3143297621272563
aF1.8637522448578228
aF26.252631064513661
aF6.5752129418139198
aF-1.762888496358344
aF-18.91343858006779
aF-11.367464551993464
aF-4.5210276344686369
aF0.85838831618598732
aF2.7057619652399887
aa(lp18
F-8.1055451896789084
aF-2.5746049722543791
aF1.1274863746544521
aF-0.58448353148305954
aF-6.5719238475105444
aF-4.7401365583331847
aF-3.7760618923895088
aF14.54774748571621
aF14.394862878177003
aF-10.254304971642162
aF6.3957433032322903
aF-14.557202356157859
aF-2.6095128550036
aF6.2543681079033329
aF-3.9356086179583718
aF-0.61838410919444642
aF5.0131455749753719
aF7.5526331589973701
aF-9.4344300805260417
aF12.429586568148608
aF-7.0757111816526406
aF2.3589259868152443
aF2.6317724541889342
aF5.9866595464218566
aa(lp19
F-12.398760041287659
aF0.43463890234657448
aF0.81608158490845206
aF1.82885810300326
aF-0.42687056251015859
aF-1.7336015317432103
aF-0.16038787063217805
aF7.0679194034975836
aF14.984696285008058
aF-7.6397549596858205
aF14.37998267293281
aF-16.603298974389499
aF0.64982156640122302
aF7.0675805536498109
aF0.34126158461658612
aF-0.23243599921468669
aF13.428772567188958
aF3.0537832162767367
aF-1.352039806186262
aF-11.503905837083066
aF-7.6792614811704141
aF1.3780968457393894
aF7.2828847139504829
aF3.4358836208101988
aa(lp20
F-3.1478652211192695
aF-2.7891705851947597
aF1.8161976094075059
aF2.5528456663593517
aF-12.696251303609065
aF3.498939562875957
aF-0.0268685491423491
aF7.3871709525321192
aF14.845701336756354
aF-8.1134863269560586
aF6.1084187777153343
aF-12.11708027505925
aF-1.4727812012825048
aF3.5087761661862156
aF-2.1435542098514042
aF-0.98195468045281131
aF9.8145487206400546
aF0.084716657340519516
aF-5.8072833941719537
aF6.8707999673605542
aF-3.03920809491607
aF0.077064984072562126
aF2.4333821279964232
aF1.3038595309907386
aa(lp21
F8.6400054199539564
aF-21.463456225928628
aF18.512451369286559
aF2.6729503244606287
aF5.8089838739744462
aF25.376696016809916
aF-6.9182140582882248
aF-15.252930464556561
aF-7.326782386530569
aF-17.116290955400299
aF-8.1862675232521873
aF-3.8149192772412674
aF-21.932964771522709
aF-3.9809789040505987
aF21.06957877037576
aF-22.170725249222262
aF-10.339721143796991
aF3.4283695850922742
aF-5.7894838201716308
aF-11.253676230704295
aF-10.654962808502372
aF-1.1285594377607804
aF21.68630851005139
aF9.660446330185481
aa(lp22
F6.7431597281045264
aF-0.75913907263504077
aF-1.3050816440776498
aF3.2458262941554774
aF-7.2092394318553712
aF8.070474862734736
aF-6.5241490789262695
aF0.50523815596294941
aF-2.9940391825252957
aF-7.8009942968181836
aF-3.8971979071174396
aF6.4594505055884408
aF-16.956693683997251
aF-1.8433684088082498
aF0.41087678721322374
aF-12.41153408620197
aF-7.8252224166211457
aF2.8764953186489044
aF-4.3742885211079612
aF-1.0547033373535579
aF-6.635611323244242
aF-2.1782693585230888
aF14.318786243196767
aF5.5256307606039874
aa(lp23
F1.6762569374158462
aF-12.650566835641765
aF7.5616743150510164
aF-2.4522290963804041
aF4.4781628372038185
aF11.121381670624158
aF-3.303280032910441
aF-3.8593402466307842
aF-0.57746078021688718
aF-13.322092370570154
aF-2.9466466232513819
aF3.523891547349904
aF-7.6328071982805348
aF0.055383300784545585
aF14.65981321086546
aF-10.54131940488114
aF-1.8319354984185658
aF3.4127801727918188
aF-5.9123942958838711
aF-3.633466935577776
aF-3.2150250745832105
aF-3.3013375820870516
aF7.0886056220840681
aF3.7244127847322579
aa(lp24
F5.3630237855864786
aF-2.8856826542522143
aF0.4225317960417172
aF4.62971149733995
aF-3.1393193158760693
aF3.2898239716827198
aF-6.8194930983029671
aF-6.3460620130604699
aF-3.6381325540637084
aF-7.2459879106906033
aF4.0238700215320575
aF-0.24161227263630336
aF-13.565282391818034
aF-7.0522687866337215
aF2.9915991409293539
aF-6.983549606872284
aF-2.3500099199643887
aF-2.0314705833274758
aF-4.3606242472328676
aF-6.2124982114968308
aF-3.4329225161373937
aF0.38665007488421133
aF9.1210898548747696
aF4.1421311350654371
aa(lp25
F3.7476662434578971
aF0.51660057547983496
aF-2.6154560748371729
aF-7.7676032845008383
aF-0.25177213324588599
aF-0.74666556231430115
aF-4.9503370978696015
aF-10.123692241943035
aF-6.7454828451055286
aF0.84099911380157455
aF-4.1655032269645638
aF2.2168304333880862
aF-2.1094496014194566
aF-3.9239313043911261
aF-0.87137114001223392
aF0.29894571335545561
aF-6.7158763789585993
aF-2.4071314262996002
aF-1.821063154367218
aF-8.3390189208850245
aF7.4841925021208375
aF1.7061271257906663
aF3.2624563022355808
aF2.00581009433429
aa(lp26
F2.7370374158268538
aF1.6915513021709072
aF0.92901209721570077
aF-5.5125018978053237
aF-1.5903289755801577
aF1.5708704567784253
aF5.4414129652672818
aF0.70258027229097386
aF-8.0689252808912322
aF2.1148104265245307
aF-11.438296275408501
aF5.1089445342662065
aF-0.45780624435066047
aF-0.51935189031830176
aF-3.1504819908185735
aF2.1789398771691917
aF-7.74128134220026
aF-2.8610020867828383
aF1.8836447212967371
aF-1.0922325842585359
aF0.66772653384621095
aF-2.1043637786406117
aF-2.8156441588345777
aF-5.7250899174195506
aa(lp27
F-0.81969578004807531
aF2.8127211442361189
aF2.1685474241524081
aF-7.564766636963812
aF-0.38485248765510632
aF-0.71890807581871774
aF-2.7007507007415148
aF3.2998010025834974
aF0.50139629896265669
aF3.4054659587886458
aF2.0322170071965915
aF4.7595834109309481
aF9.2143109290467713
aF1.0164358302500947
aF-2.6469578189027332
aF4.1638582965645172
aF0.40554866660382644
aF-1.6528953339902976
aF-2.4239818682140388
aF-1.5267997469364281
aF2.4634278558566556
aF1.4435383972162041
aF-13.851888717083483
aF-0.24630175874195892
aa(lp28
F-2.7613595421641883
aF1.0292666613964871
aF0.75332388217088708
aF3.3688800275756252
aF0.3393168562145335
aF-7.7837649175480657
aF6.5735034160252743
aF1.4972997031750073
aF-0.46464400648840554
aF0.91520117404850632
aF-1.9701717287032816
aF-4.6127106816837111
aF4.8047722584084545
aF0.40417133536102001
aF-6.4097832782212691
aF1.6147518276508073
aF0.24021451402138941
aF-0.0035928867488897722
aF2.4246813050557816
aF0.12068708045219417
aF-1.0682508939557611
aF3.0514576613524449
aF-4.5192303563167853
aF-4.9911070713676544
aa(lp29
F1.9535335624089758
aF-0.39229250575887464
aF-1.7226928756525066
aF7.0709982388982215
aF-0.70905980193611262
aF-2.2563435702581156
aF9.58458517823051
aF-2.4275905027608391
aF2.5977617782945104
aF0.19324858030799419
aF-1.1543761738266178
aF-12.933400576862232
aF1.364443411143933
aF-0.40047436266994302
aF-1.8794028978590365
aF-0.84843599216525034
aF-1.1087770316630281
aF1.1582162333633226
aF4.7356388805605585
aF-3.6595618393747964
aF-16.741259448585552
aF19.054525961812608
aF3.7572926245398639
aF-11.725392409709416
aa(lp30
F3.0875007016944127
aF0.51770853570014064
aF-0.81443087784906099
aF-9.6621253860147931
aF0.084697545409315289
aF1.1264852197909252
aF2.3986840378177754
aF-3.2718409479737955
aF-3.0934391647928412
aF-0.62663126590084528
aF-3.0803537901833224
aF7.4213299185359851
aF-1.4645078550823216
aF-1.0201990143898809
aF0.23122713211434401
aF0.62395490066648951
aF-2.777427054011758
aF0.95028127026335574
aF5.658195802952279
aF5.503047546116159
aF1.7190372110102259
aF-3.5873515445353439
aF-2.1002119546946028
aF4.8104745595781582
aa(lp31
F1.3389117117062321
aF-1.1202798305740793
aF-0.87941516305339473
aF15.07755070754799
aF-0.59769346533295231
aF-0.022112383886812411
aF6.0844860898311985
aF-1.1604831682434134
aF5.5103060173943055
aF0.9381070661757438
aF-0.22073952700410557
aF-16.332418991683923
aF-0.28698299632181579
aF0.70418911297711073
aF-5.1583085924941106
aF-0.11836447306995512
aF1.1259829936676968
aF2.7824490343615884
aF4.6295416131936795
aF3.8779069762776173
aF-12.051142504940625
aF14.270281642825335
aF5.685632721183473
aF-5.1405140286636035
aa(lp32
F1.0000344369182095
aF3.1597164685878165
aF-3.7867564793136639
aF-7.2153065277202861
aF-0.30287731467513812
aF-1.4831018286047488
aF2.5274024390258614
aF1.3232641653493236
aF-1.6849863492873347
aF1.2297058008030937
aF0.92605662510285458
aF6.2705963206884787
aF4.7096846453526924
aF0.86535904797785568
aF-2.6798749890601981
aF2.7003091413907492
aF-0.78074833271258437
aF4.0606740757653066
aF-2.2851545265659934
aF-4.8001288982146999
aF0.54131004913095226
aF3.137818029250274
aF-7.2490743794175563
aF3.149333953589927
aa(lp33
F-0.49633998129654888
aF-5.4847133302006243
aF20.327898393188438
aF2.3169965518065032
aF-18.259023977577861
aF6.9238450971135075
aF16.532460758568064
aF4.9425060742802351
aF8.020888884295438
aF-6.8545341917926947
aF3.696511958670297
aF-12.038415476266916
aF-10.287029839310636
aF6.4670348585947659
aF17.056294895704685
aF-9.999302716087028
aF6.3434865092175574
aF1.4456885221674411
aF15.543474564900244
aF-24.025350391107306
aF-15.777705325893162
aF23.605814124695666
aF5.8770401648985926
aF-14.533372431165821
aa(lp34
F1.703658442436613
aF-5.8192585429571686
aF24.213913209668643
aF8.9964278848189974
aF-16.925530876237964
aF4.9326535462101422
aF12.211842400440514
aF7.235322458175891
aF6.0786622143434998
aF-3.6913329688858667
aF4.9009676407192906
aF-19.412732545931213
aF-11.459772994378675
aF4.110393460301939
aF13.085603589583268
aF-11.523705222293284
aF8.2893932156696337
aF3.3125123092288411
aF16.033421855269385
aF-19.596568123097985
aF-17.925643397311077
aF20.070035254589914
aF4.1942079413065505
aF-13.279243807383484
aa(lp35
F-3.1710396541743702
aF1.9408610448166068
aF-0.51076125068131306
aF-4.5300264543323445
aF4.1270231678108757
aF0.56743975848690487
aF-1.7985674023274114
aF3.1323233497333733
aF0.0078402747362772817
aF-14.350542444471049
aF1.0325354468858365
aF6.8516472280899343
aF-0.40315972477769635
aF1.6552379738325038
aF-2.3798333860017538
aF2.4847914325971598
aF1.6417993804375597
aF10.66735715750087
aF-19.383200794688943
aF3.6691560684368061
aF4.2736430770824105
aF-13.684190554030771
aF2.6873355572209134
aF20.00596618507231
aa(lp36
F0.047197914672232326
aF2.1529857606921667
aF0.36087110523739385
aF-1.8910281534848588
aF-10.103369786823256
aF0.27119277521280327
aF-9.403420238664232
aF-2.2476281455119711
aF2.2584728320728669
aF-12.131116565594978
aF-1.7934116831286171
aF11.517592111973892
aF-0.67268829186462786
aF4.3438108505776913
aF-3.4612208781106695
aF-1.1431937426569623
aF0.72119265083796191
aF7.0751161337444115
aF-19.714928388214492
aF7.4022755483949547
aF0.49622373135064157
aF-14.235602233970683
aF1.9968770999604939
aF20.43454928639478
aa(lp37
F10.484080223394546
aF-0.45180623631927158
aF1.0938420669872977
aF-2.7843945127011542
aF11.484634375848755
aF0.63104209963071289
aF-2.3213992132846695
aF-20.338188376345979
aF-8.2392041958302915
aF9.18165066136722
aF-13.987659564664753
aF5.1299250366038773
aF-3.070711678517231
aF-7.5998454242854816
aF1.6476067945984889
aF-2.8892047021931071
aF-12.229251933608902
aF-8.2640877662192374
aF2.8525494540889311
aF3.8497788830197117
aF4.6648438204304687
aF1.0789490445337968
aF0.98521167275963639
aF-7.0503194110606175
aa(lp38
F8.2716543971129557
aF1.5876817810272918
aF0.27557403132093611
aF-1.4868474227613464
aF10.470497745527977
aF0.62252418470261239
aF-3.0608337165056811
aF-22.484102321863684
aF-13.4522627109107
aF12.094592354566986
aF-11.729335139223018
aF4.7881136963635624
aF-4.344392529851663
aF-8.1261589428384049
aF3.0127930919394359
aF-2.5274161569855749
aF-17.314207830439827
aF-6.9819361187828521
aF1.9464646759952731
aF3.6890347989820822
aF1.8937601553853531
aF2.3939961376172119
aF0.87372240151716674
aF-5.6890314618785505
aa(lp39
F-4.7529254610499843
aF5.4409479330177639
aF-3.3379008770268142
aF-0.85398748788979306
aF-2.1105088126435438
aF-11.993113239491539
aF5.7180728557770424
aF3.5064051660536566
aF5.4846384879575636
aF9.7564055391626212
aF6.8416300313741516
aF1.5286991424184972
aF11.639902477199787
aF-0.13887776556157447
aF-4.6164023921765995
aF9.4097491506364275
aF4.9906737476840979
aF-0.61574138781119803
aF7.4168909159066869
aF3.2833393489678233
aF7.6025182681840047
aF1.2154526820252369
aF-13.554191831553782
aF-13.206978642640852
aa(lp40
F-5.6440903544249528
aF8.0328259047050761
aF-8.0477294714548577
aF-0.086760630783628959
aF-1.6873008117622277
aF-15.810955272301035
aF3.2980814449050038
aF-1.5593282207456036
aF5.3807840509167404
aF13.419354740463115
aF4.782718574987892
aF-2.4697753012609858
aF9.2921787874278685
aF0.62709530162299454
aF-8.8513404516597323
aF15.128484171870536
aF11.142156991594765
aF-2.3179475863945784
aF4.5467813799525532
aF7.3816166624939639
aF5.0009675395884683
aF4.2947378847991002
aF-20.836189430284978
aF-14.311712279328731
aa(lp41
F1.6278250325834831
aF-0.87421077301187167
aF18.92816426342204
aF4.5898704570871303
aF-4.0938978651379454
aF-1.2099780527999204
aF8.9600473029603442
aF0.34425891391246255
aF4.2220090056010697
aF0.85187134234750073
aF1.437840448758364
aF-11.305608211211045
aF0.95769331537154301
aF0.64747293137690887
aF4.2730829406126851
aF1.6608141241150254
aF0.66332180765355131
aF0.69604033210532035
aF9.8138567627281699
aF-12.605795219302214
aF-6.796067050544023
aF15.764976519349288
aF0.010206375228906776
aF-20.55705601880674
aa(lp42
F3.9288948605000971
aF-0.64086507376069812
aF20.200417782172945
aF1.6522113798246307
aF-3.5415840775143788
aF1.6784236749331833
aF5.3939543022558389
aF-2.5339279836488875
aF0.10004529994471627
aF5.7083812124259721
aF-0.68677330748280652
aF-15.029440079016995
aF-0.51931144553861619
aF-0.11632696762698762
aF7.9499911512033146
aF-3.4769911002495832
aF-1.9380475656042282
aF-0.82830112364417996
aF7.3164287907712335
aF-15.835499770014311
aF-10.97808740768763
aF16.569590127622416
aF1.1328147159045792
aF-11.789925661558504
aa(lp43
F1.0703926993650394
aF-0.27557919017289628
aF-2.1025899935073649
aF-7.2991234107235776
aF0.4706327528180983
aF0.81717094843705373
aF-5.6728975822587238
aF-2.7487833485327098
aF-4.0578536768452818
aF1.6827150119561742
aF-2.5384179989486801
aF4.0189830310743835
aF-3.9001261038168629
aF-1.5691469919122638
aF-1.2343917184225595
aF0.011034556967018175
aF-2.8916360047768532
aF-0.58245542796240823
aF-11.852174878635211
aF0.95762309742934637
aF2.3193698645794258
aF-4.6578954394668317
aF1.1379028972517853
aF8.9561355166001313
aa(lp44
F-2.6907599820401522
aF3.335454785567896
aF-5.4102024576957968
aF-5.5854664098488263
aF0.24206816479543553
aF-1.6794671557431293
aF-5.3996670452924755
aF0.75165686814517241
aF1.0945599853262851
aF1.1025432883146959
aF0.078983894174865704
aF2.3774997263128106
aF1.2071786816755365
aF0.8776436029560224
aF-2.3114241867707852
aF1.2959554018154529
aF3.2602505576961485
aF1.403235783776088
aF-11.815708231207436
aF2.4668757471211178
aF5.6639197265349512
aF-6.3766386656733154
aF-3.484756751300607
aF6.3946874851425317
aa(lp45
F-1.5622607572822726
aF-2.9952402568233114
aF2.5932289040222929
aF-3.0388133681082965
aF-6.1972855306127865
aF3.2435179452065657
aF1.9263270874246632
aF6.2615657383844336
aF3.4670436926830792
aF-1.6844893036374369
aF0.96163195198052065
aF-0.91424338425837171
aF-3.9072268653438247
aF5.060193906816802
aF4.6138151993633603
aF-5.4253409187011679
aF3.2207459742650704
aF-0.60310093322060143
aF3.6424332534572148
aF-5.5003875994743368
aF-0.72234998564644892
aF6.9227126217355615
aF-2.4974186337039472
aF-0.97092666236000491
aa(lp46
F2.0164621089559329
aF0.3419272144830901
aF-3.6324584252764396
aF4.9925659149186732
aF-0.21021877011227333
aF1.2705961243634865
aF0.23630949998667233
aF1.7460251625343077
aF-0.94061833880206891
aF0.72061048951259954
aF2.0417163569830969
aF4.8758649332788728
aF-0.28393829520254477
aF-0.44913143224636648
aF1.238185620872057
aF-1.3763430363417541
aF-2.3151748481372008
aF-0.33091893031242497
aF4.8998756818944953
aF-3.3268652740019418
aF1.4106311539937513
aF3.6279535648731729
aF-0.88226157865201937
aF2.4119830491504661
aa(lp47
F0.53535903954773911
aF-2.9176013238466973
aF2.096493445209902
aF-1.2275949287041308
aF-4.8621265560485023
aF-1.3549351054045149
aF5.7180039689377509
aF-1.1329931921453356
aF0.95708314807881334
aF0.08715910763535209
aF0.27164649275421326
aF12.577528019917523
aF3.7995413086987382
aF-1.7429413558329638
aF-0.26179247460782429
aF-1.4611955187799779
aF-3.5539851194114429
aF1.4761074819949362
aF4.4020225881562123
aF-5.3754664584018608
aF7.3186105650400028
aF4.4158379941703947
aF-0.34915855834604953
aF0.77373740468708607
aaa(lp48
(lp49
F1.8540654707035662
aF-0.22556738550905273
aF-0.11975941893847802
aF1.4473872475638461
aF-0.54873210041552289
aF1.7769085164271476
aF1.5508753814753873
aF-1.4033151961096819
aF-0.77490485675561804
aa(lp50
F-1.59513490567181
aF0.046371552264049876
aF0.51210933766292921
aF2.3096230404798068
aF-1.0024823913772847
aF-1.1869037451781139
aF-0.44531393091372823
aF1.6029823829377043
aF0.31691155187008863
aa(lp51
F0.30725260809708066
aF-1.7277162138882423
aF-0.084170962073999947
aF-1.6096980746756768
aF8.9072270241016671
aF2.1195184807283582
aF-2.9870234362261305
aF-6.5063713807563426
aF0.98589052972931401
aa(lp52
F-0.35341185679863923
aF0.46956724295921637
aF0.27310485753885672
aF-4.5692087637743288
aF3.8343401196265599
aF1.4235255681096728
aF-3.5216704327388597
aF-2.6877196705982511
aF-2.8707961541863294
aa(lp53
F0.63467752279102763
aF0.77019473562584317
aF0.4343116146799183
aF0.83785280068647594
aF-1.2159486799893768
aF-2.0572079311380982
aF5.1513520375627326
aF1.4716242385713201
aF-1.485570132634245
aa(lp54
F3.8497103162822386
aF-1.2949791255571388
aF-0.036049840975215977
aF-1.2269338738582736
aF2.2187707906638408
aF2.8816670329318232
aF2.2468483892407698
aF-0.017762932249309235
aF2.3006682396808711
aa(lp55
F-0.86486438442133473
aF1.294015738815931
aF0.16604812384944559
aF-1.0043060545629645
aF1.3715550040590532
aF-1.2930174286228771
aF-1.9059544562384967
aF-0.80462671063750779
aF-3.2336187967263004
aa(lp56
F-2.2405522971538923
aF-0.96192704639294579
aF0.33121279439976248
aF-3.8467190727210991
aF3.6914856076883704
aF-3.9951158478315776
aF0.34965505399546792
aF5.8505430965352732
aF4.0198314558598724
aa(lp57
F-2.9510642604655599
aF-0.0087652969039685603
aF0.41814668671592309
aF-2.7230930427892082
aF3.4782336200625044
aF-2.9946599298627499
aF-1.9903272632722824
aF2.3079631805682661
aF1.9687460662046248
aa(lp58
F-0.21885300710879066
aF1.9130228653114481
aF1.0977965251953903
aF2.9526665474320222
aF-2.6236495281618009
aF-3.4010546917363254
aF-1.1867755270438305
aF-2.9838197723144146
aF-6.0428368027607808
aa(lp59
F-2.15253830728826
aF0.28758360572207908
aF0.40946246752301801
aF-1.179430582025385
aF3.2401561759980098
aF-1.9110139566069502
aF-1.60129052284586
aF3.0198699928567758
aF2.6704494250442234
aa(lp60
F1.5227394360117557
aF0.070573813572657115
aF0.51113213745115682
aF2.3267425900282319
aF-3.561656206486417
aF1.0643690222823063
aF2.491111194154195
aF2.587710387552423
aF-0.99670175402569039
aa(lp61
F-3.6927418119001563
aF1.7484869727620662
aF1.1327043633439997
aF0.49013721875594679
aF-3.7916515855371618
aF-3.3078103418867051
aF2.1668274338065734
aF3.454821840977254
aF-3.2444229088951135
aa(lp62
F-1.1692776716282467
aF0.64674880955322656
aF0.87905474921226745
aF-1.6348193679753169
aF2.0187781609266517
aF-0.058942522671824496
aF-1.0846515459965862
aF1.6198422108766128
aF-0.031511142948878808
aa(lp63
F0.67762747022325809
aF-0.30814669309961296
aF-0.10044870618467527
aF-0.65533748567546113
aF3.4660245997984949
aF-0.73552310007541899
aF0.03021709520488829
aF-1.3651361196039662
aF-0.89559637744765119
aa(lp64
F-1.5874565409409105
aF0.9963686008574536
aF0.99295647838934464
aF2.0309125189801982
aF-1.7413625442139955
aF-1.3263875681841846
aF-0.65045868696981968
aF1.7207635855517887
aF-2.2119984151988716
aa(lp65
F-1.7296660536684072
aF-0.74745604247838382
aF0.87897559882655485
aF-0.86129201661109667
aF3.70813847585495
aF-1.705512097651283
aF-1.8027952980675279
aF3.4507338826392351
aF2.7915063672887439
aa(lp66
F-0.92997281487641292
aF0.61861090526309703
aF-0.57311883531662355
aF-3.6719678804084444
aF1.5129075997544228
aF1.6193020940445866
aF-2.1776614046847595
aF0.51411079011885097
aF1.9203734699662711
aa(lp67
F-0.11596237655414771
aF0.68120053075735043
aF0.3848923751888762
aF1.1016925654962268
aF1.736015206550015
aF-1.5671147701812564
aF-3.4637892061907132
aF-3.8341428146182501
aF-3.0256068289392837
aa(lp68
F0.41579789398942513
aF0.54297366635957955
aF0.065109895201720294
aF1.4278079891733746
aF-2.3205318446698073
aF-1.2015651895197828
aF2.6872577820262071
aF3.5409140610443788
aF-0.94127857231137102
aa(lp69
F-0.39543812492914143
aF0.36561466475189686
aF0.35357060919505889
aF1.8471797497775237
aF-3.6198695354321084
aF0.51890720280922809
aF2.427138942112018
aF3.0773439365255486
aF-0.40815352001100691
aa(lp70
F0.033381998678447322
aF0.2928056018055688
aF-0.022362438843030682
aF0.25385481009725452
aF4.8868208926296672
aF-1.1886659442993652
aF-2.4893399603908071
aF-3.5075356026661586
aF-2.3258349324782515
aa(lp71
F3.3767428675825948
aF-2.7729014304366046
aF-0.53861556953069634
aF-2.6909752077320443
aF3.7086204886500025
aF2.4787096932138835
aF2.21386406719727
aF-0.76882968920306505
aF4.6827063684071399
aa(lp72
F3.3074362187545319
aF-3.361624476383545
aF0.044856294567409506
aF-0.26767772798592221
aF0.16618119014575702
aF2.9123437695606769
aF5.2295799209629292
aF6.1541766268469349
aF4.6802982921346441
aaa(lp73
(lp74
F-0.24584764202337095
aF-0.99971615034063788
aF-2.2711054053002862
aF2.1814286142267965
aF-0.43247542669624905
aa(lp75
F-0.27570729058254706
aF0.24868081249078652
aF-0.73291237773827733
aF-1.4123465101461419
aF-1.4654556357668305
aa(lp76
F-0.57115360038767859
aF-0.8594886570109167
aF-1.3783986045533696
aF-2.5533671384689285
aF-1.2007634818131956
aa(lp77
F1.8235819175648837
aF0.31843300003686564
aF-1.5659953409697205
aF-0.7952761963647087
aF-0.46085873035961944
aa(lp78
F-3.2613182122966418
aF2.6039907496092503
aF1.53184623408229
aF0.36614596132479316
aF-0.59166895701639954
aa(lp79
F-0.95345041586231138
aF-0.53922415195467477
aF-1.771158438538738
aF1.6606129297972752
aF-0.1975215177715007
aa(lp80
F2.507362329184426
aF-1.5803673613483429
aF-2.1613547003220379
aF0.45674433774058582
aF-1.3898269486822763
aa(lp81
F2.7921782674111633
aF-3.2095209472889157
aF1.9005976584522954
aF-1.9325774331774102
aF-0.77404389642585247
aa(lp82
F-1.5308666354961642
aF-3.533992902758893
aF2.4976116868420535
aF1.9228751210727919
aF-0.26525994443573853
aaaa(lp83
(lp84
F2.5395788837490629
aF1.0465064765259249
aF11.86177915654542
aF7.1225575704709128
aF-9.1933248019262557
aF-1.4050295327757845
aF12.187407220760706
aF-7.8548184273582686
aF1.9863256522260779
aF7.4674906837543542
aF-1.9531147328695375
aF0.4779360571789128
aF2.9207820043074033
aF-2.6680107520099172
aF3.3582420729728968
aF-0.24218884670701651
aF-4.0406461609941244
aF-1.2439489013997003
aF1.5467365623812088
aF-0.031372841620634744
aF-3.0860254562707263
aF11.402441905658833
aF-0.56834916855619655
aF-8.5917546987369011
aa(lp85
F3.3839082387264692
aF-1.2995315983720732
aF-0.051125243289609337
aF-0.46423795822248226
aF6.5534500088908301
aF-0.3236105225982035
aF0.59175925511046523
aF3.8005867449962079
aF3.9041424590279572
aa(lp86
F-0.33143774786264779
aF-0.072934211694745094
aF-1.1404168483694248
aF-2.2095374769851315
aF-1.2262742572552077
aaa.