(lp1
(lp2
(lp3
I0
aI1
aI0
aI1
aI0
aI1
aI0
aI0
aI0
aI0
aI0
aI0
aI0
aI0
aI0
aI0
aI1
aI0
aI1
aI0
aI0
aI1
aI0
aI0
aI0
aI0
aI1
aI0
aI0
aI0
aI0
aI0
aI1
aI0
aI0
aI0
aI0
aI0
aI0
aa(lp4
F0.00038279958889963605
aF0.010128784148694274
aF0.00032434042035859705
aF0.080262315459501604
aF0.97214406074880999
aF0.36091632419088882
aF0.99990948230879872
aF0.97221324950473298
aF0.012281613216924675
aF0.9997177205334542
aF0.99973097936408828
aF0.90314874212584317
aF0.0013184584677113065
aF0.99997437310292558
aF0.012869446011117501
aF0.0042308575059306491
aF0.0014106790356141063
aF0.0057520721448353976
aF2.8533184628912527e-05
aF0.00016867318640470427
aa(lp5
F0.94147434471260094
aF0.053690174547161379
aF0.00033045048566331819
aF0.0073956559219374423
aF0.0020729304988739844
aaa(lp6
(lp7
(lp8
F-8.865581055828212
aF-2.9285484365693875
aF-6.7748375570336092
aF-0.14250065069343598
aF8.7951893253488098
aF-6.8331211070719657
aF9.215830202261527
aF6.9171482411243526
aF-0.87102806369116315
aF4.6770278775494178
aF5.6395038201150456
aF4.5404834899074737
aF-2.2965435553436788
aF4.5124489330218278
aF-3.5261678144248996
aF-1.6402133970200836
aF-6.3425257730165745
aF-3.9592372255717443
aF-4.8915725756238668
aF-3.0486326357503248
aa(lp9
F1.6218277816751383
aF-2.7175527893361813
aF-2.4056467762962783
aF-0.073899531850526556
aF-0.013011200571294197
aF-7.2792916818792435
aF1.3958601910131716
aF7.118159059653272
aF-0.56671690882510706
aF1.0542538316730297
aF6.7611258585714742
aF0.73307614770020602
aF-1.4268342830413161
aF0.6363593770225775
aF-1.3383410850217092
aF-0.6128272831790762
aF-0.74686312442606884
aF-5.1978951878056643
aF-5.3618492376118887
aF-1.7703545948771959
aa(lp10
F-0.10570342037836708
aF-0.65195521579413307
aF-2.3618924457859958
aF-0.30580911959335921
aF3.1602847524043574
aF-0.41079233992568298
aF1.0429516733029089
aF0.10230681962040022
aF-0.76862373995979782
aF1.4554409507541282
aF1.2183832213214245
aF1.207031166863846
aF-0.36892162879739421
aF1.299869140836124
aF-1.4462195017466943
aF-0.090298835328726443
aF-1.986870944503436
aF-0.25946471620830885
aF-0.93071440872200883
aF-1.3123493017984775
aa(lp11
F0.91556748435553226
aF-0.59490809658287946
aF-0.88670897017136818
aF-0.27800614928018241
aF1.5388212959042076
aF-0.64619288571816103
aF-0.48931082189204267
aF0.76730418694919877
aF-0.17529641176250685
aF1.881483879224451
aF1.5798900001703495
aF1.8837400987702808
aF-0.50448489155441334
aF-0.023948670036776747
aF-0.32809989957087898
aF0.060635958072152447
aF-1.262832099314884
aF-1.7530005040510501
aF-2.7849072799154326
aF-1.0995331640899237
aa(lp12
F1.2360679532013719
aF0.52275853475322676
aF0.48583751758169003
aF-0.76681904842876003
aF0.32879743762906766
aF6.1307351306745925
aF-0.47539493860170562
aF0.33504320246127922
aF0.4935114977215409
aF-0.2802846316343986
aF-1.1937565760004778
aF-0.38317121501118939
aF0.59486721888801697
aF-1.4422978629109522
aF0.27155517343036323
aF0.25789796748504112
aF0.95896584250730899
aF0.95980259482348473
aF0.37635386281675176
aF0.10319337853512915
aa(lp13
F-3.2206787163988158
aF-1.1833484457916936
aF-1.1209992694377844
aF-0.50116851589646672
aF-0.037910125981681204
aF-2.0264284627159999
aF2.1884185454956238
aF-1.1978258426289952
aF-1.9275520077647472
aF0.46123080241547249
aF0.093666479712477602
aF-0.8404248940773319
aF-2.2260098668736323
aF1.052915934034214
aF-0.70876670979322942
aF-1.7171349196471921
aF-0.84329452932264415
aF-0.64545631226349254
aF-0.53598355607296266
aF-1.2782405079095933
aa(lp14
F6.0786437671806013
aF-0.19073729523832889
aF-0.46595648180499666
aF-0.079488471591844814
aF0.27048521386651037
aF1.3597736811759928
aF-4.2595326102824664
aF0.20041229843462335
aF-0.12776728257785031
aF1.0049671489323455
aF-0.15497642773006862
aF-0.23136066871408351
aF0.71585606270128366
aF-1.9487688267189223
aF-0.50131525593880422
aF-0.14472834210911614
aF-0.27444528405216007
aF-0.23003762901228147
aF-0.40388778019867339
aF-0.11092181851668638
aa(lp15
F-0.27606192680930863
aF0.35720498886458474
aF1.0735315461575747
aF-0.19702100916988158
aF-0.090365716984241243
aF0.37371422323369441
aF0.54655947873238764
aF-0.65177122634649398
aF-0.66940307415990274
aF1.1420295719048041
aF-1.0304261500466505
aF-0.42019825110997205
aF-0.99391557699306476
aF0.15594061950547861
aF-0.96636245655296882
aF-1.1097839973593044
aF-1.7652098198542314
aF0.65818761888492083
aF0.29711590346991557
aF-0.079939896220191292
aa(lp16
F0.49128287980687746
aF-3.8312046375752202
aF-2.598537563916139
aF0.4383857337375624
aF-3.8785058524545883
aF-3.8690088477195324
aF4.1946548704571995
aF-12.186813584335654
aF5.6809560128572087
aF-7.2463515030662276
aF-0.20793022991259283
aF-5.0630640729376699
aF0.76055414457160841
aF1.5493231064974682
aF4.2072106030083845
aF-1.1130175729577321
aF3.8169396071560731
aF-0.14535797672862172
aF6.0142481227502609
aF-0.50667419373887135
aa(lp17
F-1.0984269382500376
aF-0.49714144118174103
aF-2.1868742030476644
aF0.70884039149640543
aF-4.5284816222158906
aF-3.3112975621576419
aF-0.86587741648623961
aF1.2153235281033532
aF5.7964407353358895
aF-5.6035049961980912
aF-0.31256738937486067
aF-2.0331030166118107
aF0.33825017003440205
aF1.4375691414867509
aF0.24787317325261901
aF-0.74311156927757149
aF4.3153590720173565
aF1.7476959573396085
aF0.48177362319395378
aF-0.5337499533725828
aa(lp18
F0.058038092657840393
aF-1.749131228290761
aF0.1051269343059418
aF-0.35099710328478378
aF-1.1528120026059352
aF-1.1522745967470871
aF0.77462726474996202
aF-2.9509871425612375
aF2.7770441827648868
aF-4.653999704666167
aF-0.079752253817920907
aF-1.1875787145282797
aF0.32579570114656498
aF0.77383292883075327
aF1.7190345203540687
aF-0.88153822500942369
aF2.3822687982588611
aF-0.14372792740124629
aF3.8477988110649117
aF0.12746115232057303
aa(lp19
F-1.2001615554472695
aF-0.62618825140540435
aF-0.31282314124053456
aF0.68136993952304636
aF-1.4047211712307903
aF-1.5659232522087205
aF0.90519486745152145
aF-2.2433351790118783
aF2.7324766727998639
aF-3.4263200792716106
aF-0.13232895419441398
aF-0.54280150690507867
aF-0.23412738310015577
aF1.4887188003765908
aF1.5263234741657119
aF-1.0961281026386338
aF3.1904172249937734
aF0.03055875878997753
aF1.6555726410991476
aF-1.0581619298957232
aa(lp20
F-0.67787749020627019
aF5.2979014323036582
aF7.0329493861331338
aF-1.861828804171644
aF-2.6582082295417746
aF2.0910028522358344
aF-5.4429515925149623
aF3.9949396102093293
aF-6.1870546618084168
aF-8.1814485105304158
aF-7.0105092827506637
aF4.7993702253334822
aF-0.90004217545135401
aF1.4089761395312204
aF-2.3425437868403698
aF0.37093652747124062
aF-5.109366191608391
aF-1.2625043933515869
aF6.6630926613617421
aF0.13439342875839719
aa(lp21
F-0.67974793767317665
aF1.1953053988339253
aF2.1759159412731166
aF-2.3628086106310668
aF-2.4077835371899501
aF-0.68176721614784541
aF-7.0033756918661174
aF4.7461331742109731
aF-0.17620792662275889
aF-5.122990726665571
aF-0.5852570641850291
aF3.6810533672409114
aF-0.65027394984375309
aF1.5121676910831277
aF-0.98419627713889746
aF0.099836067366938216
aF-5.6452965077861847
aF-0.1280837042447649
aF0.39332414893661016
aF-0.46080152834185673
aa(lp22
F0.43851729847945486
aF1.6431582111495144
aF2.2918596039948946
aF0.45194226765953399
aF-0.64300802105260257
aF-1.2162088676522882
aF-2.2360167282288494
aF1.3582022563668399
aF-1.9824475897203502
aF-4.7712538405135669
aF-2.1018422215770598
aF1.0525519557783534
aF-0.81218855769546772
aF0.42339247218050241
aF-0.84737958360988064
aF-0.27937786421027699
aF-2.2208760051054144
aF-0.75545969470584151
aF4.7983191316136464
aF-0.18972524770823448
aa(lp23
F-1.0685372546814289
aF2.3222658680914252
aF0.45511142327536125
aF-1.2682989557832067
aF-0.8070736548554549
aF0.99801787642061557
aF-3.2765335971301468
aF1.495166089102073
aF-0.34607410498963037
aF-3.6856967143085715
aF-1.1768852233590701
aF1.153532236755024
aF-0.20941968473076361
aF1.2610674510431026
aF-0.29252492287902676
aF0.36518242833020981
aF-2.2082565373729146
aF-0.8946918392728751
aF1.1432845617999665
aF-0.37006987038894668
aa(lp24
F-0.92106266114520607
aF0.59002314388629251
aF0.96418367174866415
aF-0.42291859411148985
aF0.34496646230174238
aF0.19550426961162642
aF1.891702036752628
aF0.12680693081624214
aF-1.1331787105288498
aF0.61728964793473984
aF0.78984004943235109
aF2.6051089029636945
aF-0.79595199686497276
aF1.5675931021737959
aF-1.4826427807599876
aF0.31705339991590442
aF-2.9007274995977319
aF0.21586506062030797
aF-1.7017436692444772
aF-0.09965486206687442
aa(lp25
F0.4832766619444932
aF-0.16068683363096153
aF0.28100821724923009
aF-0.26551281529785992
aF0.27452419696974784
aF0.25674830816960215
aF-0.95570452132825845
aF1.3285105815259091
aF-0.71267558757102745
aF-0.075038416965458529
aF-0.21912944788940047
aF1.9992451000888358
aF0.16085387690216815
aF-0.21015571720378404
aF-0.96026652131094858
aF0.13925090688896596
aF-1.503367789659348
aF0.72220400175285049
aF-1.740392985858644
aF-0.16258867340137501
aa(lp26
F0.55909811989320279
aF-0.40375124600323836
aF-3.8713434759440486
aF0.23324951878893066
aF-0.0012234792992507106
aF-0.50174483687692262
aF3.2115814318654037
aF-0.72379229618318197
aF0.69173754698773338
aF1.4888597745584564
aF0.62477046956472393
aF-0.79260678999927414
aF0.02976300431363094
aF1.028625809083783
aF0.37237034141026981
aF-0.4139578413615691
aF-0.96305933677060906
aF0.68557398221308763
aF-0.48371447920252514
aF-0.44646686456592027
aa(lp27
F0.62995004027058366
aF-1.1338271690034385
aF-2.110756396164748
aF0.084408959105162024
aF0.084591207693824971
aF0.56016246016614823
aF-0.1022345656561016
aF-0.49623678115825604
aF0.81416404010970733
aF0.45996258229229037
aF0.74455845467485704
aF-1.9093342317749042
aF0.26001047248889697
aF0.018526798735190645
aF-0.17221510653750727
aF-0.65522364178201897
aF-0.56918057118129106
aF0.76817295360366133
aF-1.4864386075407869
aF-0.92487154423894458
aa(lp28
F4.9156645204596323
aF-0.037793850326059281
aF0.34644951453372491
aF-0.26041300350291446
aF-0.17416056114097336
aF-0.75650157682130514
aF-6.2918622261780781
aF0.49961407118673284
aF-0.18236302011698938
aF-0.30540372826967255
aF0.26185799176411279
aF-0.02372664357638786
aF0.45511811717174283
aF-2.1216697468661092
aF0.50392037175119497
aF0.010170778653223038
aF2.7333770207174379
aF-0.24054470102440773
aF0.058753602308696452
aF-0.11756343250864956
aa(lp29
F-0.35841349696626595
aF-0.085148960398202606
aF1.0118719416595314
aF0.076061715863185206
aF0.55427030002066879
aF0.075469047431367065
aF-0.18185087852580531
aF0.13278019726405574
aF-0.71057303551614814
aF0.80303905203776438
aF-0.65532344827249411
aF0.04899032911194616
aF-0.74374467435707237
aF-0.012400429400634941
aF-1.1333150711405238
aF-0.86949845822098082
aF-0.73393959189893032
aF-0.29064073158369302
aF-0.65866114190609515
aF-0.4670671799288581
aa(lp30
F4.8685194867500243
aF-0.44876596232392979
aF-0.46884283140510163
aF-0.2191240760621265
aF-0.22694289370198159
aF-0.67715619890174394
aF-5.6401790104422984
aF-0.465049908965114
aF-0.26555315580305572
aF-0.65722262291112343
aF-0.070352090680793927
aF-0.41112021470023752
aF0.13772476238999368
aF-2.4074798234324013
aF0.34998054985084359
aF0.97893620946278692
aF2.5961144203647848
aF-0.13024996769810293
aF-0.012711148960168742
aF0.016882803525435256
aa(lp31
F-0.32463677353320924
aF-0.84866037718656939
aF-1.5299855512845606
aF0.028256187296893744
aF-0.14886199995168459
aF0.18342401965919494
aF-0.5918890484316115
aF-0.66230841469158719
aF0.64951197878232014
aF0.29967902285564874
aF-0.095397326479129255
aF-1.9104248708447022
aF-0.81297428076741773
aF0.70917618294601126
aF-0.51847516653583825
aF-0.52592280785611767
aF-0.68916405118573265
aF0.33596305008725641
aF-0.30192354629684603
aF-0.79048170385887528
aa(lp32
F3.9752284228970232
aF1.9138832286557832
aF2.5135755726894868
aF-0.73871377237476976
aF-4.9072509184436717
aF7.9500529883524473
aF-4.1285529394421081
aF-7.3773018098499081
aF0.19827786447951923
aF-2.8456529987401455
aF-5.0040763360308596
aF-1.498981130420578
aF1.4288581887544882
aF-2.6009698612470391
aF0.88286914339607048
aF0.28634988312504078
aF1.6794119943321728
aF3.072279976204972
aF3.535171343939941
aF0.52711878098403542
aa(lp33
F3.7010946973591685
aF2.0932708656097248
aF2.7303849728046909
aF-0.28937760572168109
aF-4.2117816012126923
aF8.2675869612749739
aF-5.7482182704922549
aF-7.9189254326475575
aF0.45269535573753045
aF-2.8443703206835043
aF-5.4495973748338962
aF-1.5250809524350879
aF1.1088878645483087
aF-2.897155038931865
aF0.8987671151897858
aF1.0561089565722663
aF1.8510202191225258
aF3.0398248534019574
aF3.5151710517760955
aF0.94282354044916872
aa(lp34
F-9.794902389617107
aF-0.014474531923439535
aF0.21149802345406069
aF-1.0755391731086053
aF-0.46687165961360061
aF-1.9244510650526099
aF1.5556334466225634
aF0.40702255367739176
aF-0.050769241133032307
aF0.33807876451676311
aF0.34934982327773267
aF-0.12035946074823392
aF-0.87140752106505315
aF7.6478380116386333
aF0.64550112076253285
aF-1.4147734887967214
aF-0.8463313337237317
aF-1.9114816600811144
aF0.5005164955266076
aF-3.9268730269971361
aa(lp35
F-7.4242689964901336
aF0.13254545131993192
aF-0.14963547570753216
aF-1.1270211917870276
aF-1.9607844652368891
aF-1.3594635817279048
aF1.2887139093453479
aF0.88626465316927361
aF0.20050128609543721
aF0.72931559138058766
aF0.3631598843928589
aF-0.36320367862363923
aF-0.60956132165132892
aF7.6136802403697921
aF0.69570062192789939
aF-1.0508682491669854
aF-0.28737835387579919
aF-1.643776751501336
aF0.473644464337657
aF-3.7159348227317159
aa(lp36
F-0.21757703706163664
aF1.3012148145720659
aF1.2241467444567764
aF-0.60522832712781516
aF6.4954071222487011
aF4.1140581008732724
aF-1.2232706000967499
aF3.9817266504005606
aF-4.7229934006205818
aF2.2528095873884442
aF-0.63958127657287434
aF3.3491818662603081
aF-0.27892420268989065
aF-1.6907897978484925
aF-1.9761496083892129
aF0.74255535164264364
aF-1.4175598814127792
aF0.55772136522961901
aF-3.9061117845986542
aF0.45733389660544221
aa(lp37
F-0.20827700688615891
aF1.902027177894805
aF1.7792349107585188
aF-0.97036406498189132
aF6.8867361304241044
aF4.7529097885497338
aF-2.5250358685103929
aF3.8031114548167873
aF-4.7748613269990621
aF1.8122902853925142
aF-0.32260919427222212
aF4.512766217019478
aF0.027167479148041868
aF-0.84516888851755467
aF-2.9071626078204105
aF0.37518891394273374
aF-2.1643457854163826
aF0.42759393283894559
aF-3.9500045973628679
aF1.4527115029374826
aa(lp38
F1.6883475563904002
aF-2.6974670264086051
aF-4.3739261237865454
aF1.869130481834552
aF4.5246679812993804
aF-0.98480187695586807
aF3.7876700127503509
aF-5.8573928449024635
aF3.7021137592888449
aF2.0155885601351442
aF3.5265294634394402
aF-3.3818078400896838
aF0.17126456640752336
aF-3.9142234745906843
aF0.92415204160006348
aF-0.33836757915956872
aF1.8073874722466028
aF0.6661522963684926
aF-2.1859556036567795
aF0.46530339843866841
aa(lp39
F0.49464294192277941
aF-3.8332241852408462
aF-4.6158657898624131
aF1.4597610385128272
aF4.9115722282981471
aF-0.81081786552151947
aF3.4391861654804567
aF-6.3227282169562642
aF3.7956796377109887
aF3.0364444007876839
aF4.8692031655392585
aF-4.2873424356529428
aF0.79630528388377175
aF-1.7870062337021169
aF0.66826679605722006
aF-0.59194369243081113
aF1.0293681761520785
aF2.096197002707417
aF-2.8093868337138086
aF2.3049739122381157
aa(lp40
F5.341673476973674
aF0.30049862393895332
aF-0.76104138646026154
aF0.57663110256932348
aF0.69416511590757035
aF8.931929366341727
aF-2.5702239266618969
aF-3.0552702167000367
aF1.1832660515139279
aF0.45101720236873766
aF-0.61564289749690915
aF-1.3802811505960773
aF0.72080457800068276
aF-2.0005742751733715
aF0.33323828628127639
aF0.54439318450572483
aF1.6112500657988953
aF4.0227631598684859
aF0.77665453642561999
aF1.2338720807644783
aa(lp41
F2.6746096737974066
aF2.1880800004340371
aF1.0767665997212175
aF-0.10467388910358927
aF0.1178526199623095
aF9.3079834330370144
aF-2.2810464610279904
aF-5.1985800196483503
aF-0.23208104692233084
aF0.19897303143941547
aF-2.0835709924637138
aF1.2344548465013196
aF0.44895211406732483
aF-2.4349619139407594
aF-0.046788576340890127
aF0.61564787121943143
aF1.9038504714788789
aF1.346899744430277
aF0.34266847996488231
aF1.667016201516677
aa(lp42
F-5.1524159499894386
aF-0.029263242770855923
aF0.86184442489090107
aF-0.78643967000679826
aF-1.0764049056800749
aF-0.96562390494814254
aF2.300850302553112
aF1.4134389133629794
aF-1.2910814153990942
aF0.25776975530077856
aF0.20391459524291708
aF0.70740818533061867
aF-0.50532915593416627
aF3.3100958454621057
aF-0.069533800607422994
aF-0.17881816468390557
aF-2.1439225817377143
aF-0.52159412631722679
aF0.13230600705184126
aF-0.82903839563334292
aa(lp43
F-2.9245196273009904
aF-0.45716765474164872
aF-0.18828786310416493
aF-0.050374291309904111
aF-0.67798311017249291
aF-2.0561439615775079
aF3.2929146238035596
aF-0.020606276803558532
aF0.26207929564276267
aF0.89428422535943575
aF0.84154637192997572
aF-0.52883111199699051
aF-0.40398764386934322
aF2.0905137305122303
aF-0.18065181757168061
aF-0.11074447947659813
aF-1.0751356374141394
aF-0.3495358137073537
aF0.045466201664691945
aF-0.47861252792191994
aa(lp44
F0.43309664008689397
aF0.60858516244462446
aF0.52248579859726973
aF-0.56079024349623885
aF-2.0543987532147039
aF0.6544103423109856
aF0.23706127452785944
aF-0.47463059309020778
aF0.13828089336940128
aF0.48910794029446192
aF-0.97965413040670046
aF-0.7978717417859249
aF1.1679630714353471
aF-1.1447627366280726
aF0.26287122878497721
aF0.023362445670373412
aF-0.22261664705203207
aF1.0449553945886632
aF1.7281393574155577
aF0.57381339310313817
aa(lp45
F0.12229080075640364
aF-0.15752385645457004
aF-0.30059635296552423
aF-0.24769475706607769
aF-0.47247190545075723
aF0.28122937748175619
aF-0.21035343583811827
aF-0.46081032857692827
aF-0.13331144606060819
aF0.23869603367933126
aF0.0035109027690604245
aF-0.28985820849075355
aF-0.78690312531176376
aF-0.053090902558037771
aF0.0089121117527713473
aF-0.52072567559027949
aF-0.084346070370000747
aF-0.063511639948182166
aF0.37903964126659817
aF0.12685898096505521
aa(lp46
F-0.70822719954920133
aF-0.36761147706313124
aF-0.2828953514162918
aF-0.012366203070336413
aF0.1808183084699285
aF0.069957142929006774
aF0.64327465171498588
aF0.61690453645870713
aF0.28791757220746844
aF0.15979173967461646
aF-0.34737104405952801
aF0.1045193043601924
aF-0.53449288728191691
aF0.083279959102400533
aF-0.0010967521530953666
aF-1.0393380859321826
aF0.01927563305529682
aF0.034707735436838937
aF0.40084646795236778
aF0.14315873689502367
aaa(lp47
(lp48
F-4.7946941401860679
aF3.4844560635375768
aF-1.6132119035358108
aF-1.9158130197454302
aF-0.82800568720834267
aa(lp49
F-1.225094491086326
aF-0.17694960043444827
aF-0.57616235085304535
aF-0.086446224075276648
aF-0.46337715288840697
aa(lp50
F-1.3953656153304956
aF-0.48251263813048328
aF-1.2262688405159385
aF0.71643549824977237
aF0.13751178597769401
aa(lp51
F-0.43398810552938155
aF0.37719767751525057
aF-0.4789798065033441
aF-1.3872838040869702
aF-0.49391698254805855
aa(lp52
F1.2062418133808581
aF3.8938195733483565
aF-2.6248976802476487
aF-1.4050894543907437
aF-0.82724896632202127
aa(lp53
F-5.1137072793669613
aF4.4446893298273658
aF-1.2652056400268594
aF0.81046024921126059
aF-0.28785379050050458
aa(lp54
F2.8080412056249511
aF-2.0300245336381249
aF0.185406219046896
aF-1.5383607784626421
aF-0.60717940399198644
aa(lp55
F1.6889984342731736
aF-2.993875629350351
aF-3.1870306698696949
aF1.2821775147460042
aF-1.0409744435182529
aa(lp56
F-0.75662017475066712
aF0.18755488924590646
aF2.0021073508575382
aF-1.4809307233116038
aF-0.7456898047008681
aa(lp57
F0.94358597060516347
aF2.1926064562601053
aF-2.4060800911454323
aF-3.1344873676269129
aF-3.1945634314202949e-05
aa(lp58
F1.2272906178737533
aF-0.58993250851500412
aF-0.74427530424578203
aF-2.5316882114115775
aF-0.38027252515315479
aa(lp59
F-0.30191029689399468
aF-0.46167651059011838
aF-0.77729370902032358
aF0.84682135414163706
aF-0.76799186819981358
aa(lp60
F-0.87513981634604354
aF0.62178588852127104
aF0.11949893283857968
aF-0.37527843938826311
aF0.1230295442427906
aa(lp61
F-0.11518849816040466
aF-4.1105103207010201
aF2.442911868740095
aF2.6959988391227849
aF-1.475804986536132
aa(lp62
F-1.0416634107576812
aF-0.26311881520919067
aF-0.36929321951941213
aF-1.0701819773659758
aF-0.52894365788127329
aa(lp63
F-0.53741270586550549
aF0.84182760450474148
aF-0.60707314207917007
aF0.090873831663320234
aF-0.50657730000895762
aa(lp64
F-2.001056268990089
aF2.1046052802144626
aF0.60106315560639423
aF-1.4867299484991461
aF-0.42595212569724866
aa(lp65
F-2.320381732554559
aF1.2341937498298534
aF-0.45880543173529897
aF-0.72752760729755517
aF-0.66244296281661696
aa(lp66
F-1.4309098611062789
aF-1.7035530211845276
aF0.10333297263850602
aF0.0010412914253148759
aF-0.48325056393276467
aa(lp67
F-1.4977834055010029
aF1.0157342407703156
aF-1.7707673589940587
aF-1.7711062033601677
aF-0.90174740422810484
aaaa(lp68
(lp69
F-2.0090197572010058
aF-0.48565798941359029
aF-1.2013289822207205
aF-0.98376025655042643
aF0.18985139540486748
aF3.7882010138868392
aF1.3085942107221655
aF-1.0875354497728305
aF-1.7000965681219871
aF0.083213303494019356
aF-1.7041557199118098
aF-0.74387744072760476
aF-0.8116770828032458
aF-0.32458495391900483
aF-0.72612811848001646
aF-1.3526398718277539
aF0.12180171670155798
aF-0.2673272622663031
aF-0.21595933582025051
aF-0.8329898768897015
aa(lp70
F-3.6841187352503963
aF-0.41750622638899293
aF-0.6554451205661822
aF-1.1988689810564375
aF-1.0355338674741923
aaa.